
Memory Configuration

Name             Origin             Length             Attributes
*default*        0x0000000000000000 0xffffffffffffffff

Linker script and memory map

Address of section .text set to 0x0
LOAD C:\Users\uersu\AppData\Local\Temp\a.mingw.elf.mhjlZj.ltrans0.ltrans.o
LOAD C:\Users\uersu\AppData\Local\Temp\ccwIxaMQ.debug.temp.o
LOAD C:\Users\uersu\AppData\Local\Temp\ccWQnFpd.debug.temp.o
LOAD C:\Users\uersu\AppData\Local\Temp\ccOJ4Cez.debug.temp.o
LOAD C:\Users\uersu\AppData\Local\Temp\ccwrwalV.debug.temp.o
LOAD C:\Users\uersu\AppData\Local\Temp\ccc8D5Sk.debug.temp.o
LOAD C:\Users\uersu\AppData\Local\Temp\ccCwmoyJ.debug.temp.o
LOAD C:\Users\uersu\AppData\Local\Temp\ccwW5EQ7.debug.temp.o
LOAD C:\Users\uersu\AppData\Local\Temp\ccQdGOCv.debug.temp.o
LOAD C:\Users\uersu\AppData\Local\Temp\ccEMHrBX.debug.temp.o
LOAD C:\Users\uersu\AppData\Local\Temp\ccmAyk3n.debug.temp.o
LOAD C:\Users\uersu\AppData\Local\Temp\ccqZyRMO.debug.temp.o
LOAD C:\Users\uersu\AppData\Local\Temp\ccCKOTYi.debug.temp.o
LOAD obj/gcc8_a_support.o
LOAD obj/utilsasm.o
                [!provide]                        PROVIDE (__executable_start = SEGMENT_START ("text-segment", 0x80000000))
                0x0000000080000074                . = (SEGMENT_START ("text-segment", 0x80000000) + SIZEOF_HEADERS)

.interp
 *(.interp)

.note.gnu.build-id
 *(.note.gnu.build-id)

.hash
 *(.hash)

.gnu.hash
 *(.gnu.hash)

.dynsym
 *(.dynsym)

.dynstr
 *(.dynstr)

.gnu.version
 *(.gnu.version)

.gnu.version_d
 *(.gnu.version_d)

.gnu.version_r
 *(.gnu.version_r)

.rela.dyn       0x0000000080000074        0x0
 *(.rela.init)
 *(.rela.text .rela.text.* .rela.gnu.linkonce.t.*)
 *(.rela.fini)
 *(.rela.rodata .rela.rodata.* .rela.gnu.linkonce.r.*)
 *(.rela.data .rela.data.* .rela.gnu.linkonce.d.*)
 *(.rela.tdata .rela.tdata.* .rela.gnu.linkonce.td.*)
 *(.rela.tbss .rela.tbss.* .rela.gnu.linkonce.tb.*)
 *(.rela.ctors)
 *(.rela.dtors)
 *(.rela.got)
 *(.rela.bss .rela.bss.* .rela.gnu.linkonce.b.*)
                [!provide]                        PROVIDE (__rela_iplt_start = .)
 *(.rela.iplt)
                [!provide]                        PROVIDE (__rela_iplt_end = .)

.rela.plt
 *(.rela.plt)

.init
 *(SORT_NONE(.init))

.plt
 *(.plt)

.iplt
 *(.iplt)

.text           0x0000000000000000     0x7792
 *(.text.unlikely .text.*_unlikely .text.unlikely.*)
 .text.unlikely
                0x0000000000000000       0xb4 C:\Users\uersu\AppData\Local\Temp\a.mingw.elf.mhjlZj.ltrans0.ltrans.o
                0x0000000000000000                _start
 *(.text.exit .text.exit.*)
 *(.text.startup .text.startup.*)
 *(.text.hot .text.hot.*)
 *(SORT_BY_NAME(.text.sorted.*))
 *(.text .stub .text.* .gnu.linkonce.t.*)
 .text          0x00000000000000b4     0x7234 C:\Users\uersu\AppData\Local\Temp\a.mingw.elf.mhjlZj.ltrans0.ltrans.o
                0x0000000000000812                main
                0x0000000000006f32                strlen
                0x0000000000006f52                memset
                0x0000000000006f8a                memcpy
                0x0000000000006fd8                memmove
 .text          0x00000000000072e8      0x10c obj/gcc8_a_support.o
                0x00000000000072e8                __mulsi3
                0x000000000000730a                __udivsi3
                0x0000000000007366                __divsi3
                0x0000000000007390                __modsi3
                0x00000000000073b8                __umodsi3
                0x00000000000073e2                KPutCharX
                0x00000000000073f0                PutChar
 .text          0x00000000000073f4      0x39e obj/utilsasm.o
                0x00000000000073f4                c2p1x1_8_c5_gen_init
                0x0000000000007470                c2p1x1_8_c5_gen
 *(.gnu.warning)

.fini
 *(SORT_NONE(.fini))
                [!provide]                        PROVIDE (__etext = .)
                [!provide]                        PROVIDE (_etext = .)
                [!provide]                        PROVIDE (etext = .)

.rodata         0x0000000000007792      0xfd8
 *(.rodata .rodata.* .gnu.linkonce.r.*)
 .rodata        0x0000000000007792      0xfd8 C:\Users\uersu\AppData\Local\Temp\a.mingw.elf.mhjlZj.ltrans0.ltrans.o
                0x00000000000078d0                incbin_swfont_start
                0x0000000000007e80                incbin_swfont_end

.MEMF_CHIP      0x000000000000876a       0x7c
 .MEMF_CHIP     0x000000000000876a       0x7c C:\Users\uersu\AppData\Local\Temp\a.mingw.elf.mhjlZj.ltrans0.ltrans.o

.rodata1
 *(.rodata1)

.eh_frame_hdr
 *(.eh_frame_hdr)
 *(.eh_frame_entry .eh_frame_entry.*)

.eh_frame
 *(.eh_frame)
 *(.eh_frame.*)

.gcc_except_table
 *(.gcc_except_table .gcc_except_table.*)

.gnu_extab
 *(.gnu_extab*)

.exception_ranges
 *(.exception_ranges*)
                0x000000000000a7e6                . = DATA_SEGMENT_ALIGN (CONSTANT (MAXPAGESIZE), CONSTANT (COMMONPAGESIZE))

.eh_frame
 *(.eh_frame)
 *(.eh_frame.*)

.gnu_extab
 *(.gnu_extab)

.gcc_except_table
 *(.gcc_except_table .gcc_except_table.*)

.exception_ranges
 *(.exception_ranges*)

.tdata          0x000000000000a7e6        0x0
                [!provide]                        PROVIDE (__tdata_start = .)
 *(.tdata .tdata.* .gnu.linkonce.td.*)

.tbss
 *(.tbss .tbss.* .gnu.linkonce.tb.*)
 *(.tcommon)

.preinit_array  0x000000000000a7e6        0x0
                0x000000000000a7e6                PROVIDE (__preinit_array_start = .)
 *(.preinit_array)
                0x000000000000a7e6                PROVIDE (__preinit_array_end = .)

.init_array     0x000000000000a7e6        0x0
                0x000000000000a7e6                PROVIDE (__init_array_start = .)
 *(SORT_BY_INIT_PRIORITY(.init_array.*) SORT_BY_INIT_PRIORITY(.ctors.*))
 *(.init_array EXCLUDE_FILE(*crtend?.o *crtend.o *crtbegin?.o *crtbegin.o) .ctors)
                0x000000000000a7e6                PROVIDE (__init_array_end = .)

.fini_array     0x000000000000a7e6        0x0
                0x000000000000a7e6                PROVIDE (__fini_array_start = .)
 *(SORT_BY_INIT_PRIORITY(.fini_array.*) SORT_BY_INIT_PRIORITY(.dtors.*))
 *(.fini_array EXCLUDE_FILE(*crtend?.o *crtend.o *crtbegin?.o *crtbegin.o) .dtors)
                0x000000000000a7e6                PROVIDE (__fini_array_end = .)

.ctors
 *crtbegin.o(.ctors)
 *crtbegin?.o(.ctors)
 *(EXCLUDE_FILE(*crtend?.o *crtend.o) .ctors)
 *(SORT_BY_NAME(.ctors.*))
 *(.ctors)

.dtors
 *crtbegin.o(.dtors)
 *crtbegin?.o(.dtors)
 *(EXCLUDE_FILE(*crtend?.o *crtend.o) .dtors)
 *(SORT_BY_NAME(.dtors.*))
 *(.dtors)

.jcr
 *(.jcr)

.data.rel.ro
 *(.data.rel.ro.local* .gnu.linkonce.d.rel.ro.local.*)
 *(.data.rel.ro .data.rel.ro.* .gnu.linkonce.d.rel.ro.*)

.dynamic
 *(.dynamic)
                0x000000000000a7e6                . = DATA_SEGMENT_RELRO_END (., 0x0)

.got
 *(.got.plt)
 *(.igot.plt)
 *(.got)
 *(.igot)

.data           0x000000000000a7e8     0x181c
 *(.data .data.* .gnu.linkonce.d.*)
 .data          0x000000000000a7e8     0x181c C:\Users\uersu\AppData\Local\Temp\a.mingw.elf.mhjlZj.ltrans0.ltrans.o
 .data          0x000000000000c004        0x0 obj/gcc8_a_support.o
 .data          0x000000000000c004        0x0 obj/utilsasm.o

.INCBIN.MEMF_CHIP
                0x000000000000c004   0x1a1b65
 .INCBIN.MEMF_CHIP
                0x000000000000c004   0x1a1b65 C:\Users\uersu\AppData\Local\Temp\a.mingw.elf.mhjlZj.ltrans0.ltrans.o
                0x000000000000c004                incbin_framebuffer_start
                0x0000000000021fc4                incbin_framebuffer_end
                0x0000000000021fc6                incbin_rawzoom_start
                0x0000000000037f86                incbin_rawzoom_end
                0x0000000000037f88                incbin_rawzoom1_start
                0x000000000004df48                incbin_rawzoom1_end
                0x000000000004df4a                incbin_rawzoom2_start
                0x0000000000063f0a                incbin_rawzoom2_end
                0x0000000000063f0c                incbin_rawzoom3_start
                0x0000000000079ecc                incbin_rawzoom3_end
                0x0000000000079ece                incbin_rawzoom4_start
                0x000000000008fe8e                incbin_rawzoom4_end
                0x000000000008fe90                incbin_rawzoom5_start
                0x00000000000a5e50                incbin_rawzoom5_end
                0x00000000000a5e52                incbin_rawzoom6_start
                0x00000000000bbe12                incbin_rawzoom6_end
                0x00000000000bbe14                incbin_rawzoom7_start
                0x00000000000d1dd4                incbin_rawzoom7_end
                0x00000000000d1dd6                incbin_rawzoom8_start
                0x00000000000e7d96                incbin_rawzoom8_end
                0x00000000000e7d98                incbin_rawzoom9_start
                0x00000000000fdd58                incbin_rawzoom9_end
                0x00000000000fdd5a                incbin_rawzoom10_start
                0x0000000000113d1a                incbin_rawzoom10_end
                0x0000000000113d1c                incbin_rawzoom11_start
                0x0000000000129cdc                incbin_rawzoom11_end
                0x0000000000129cde                incbin_rawzoom12_start
                0x000000000013fc9e                incbin_rawzoom12_end
                0x000000000013fca0                incbin_rawzoom13_start
                0x0000000000155c60                incbin_rawzoom13_end
                0x0000000000155c62                incbin_rawzoom14_start
                0x000000000016bc22                incbin_rawzoom14_end
                0x000000000016bc24                incbin_rawzoom15_start
                0x0000000000181be4                incbin_rawzoom15_end
                0x0000000000181be6                incbin_rawzoom16_start
                0x0000000000197ba6                incbin_rawzoom16_end
                0x0000000000197ba8                incbin_rawzoom17_start
                0x00000000001adb68                incbin_rawzoom17_end

.data1
 *(.data1)
                0x00000000001adb69                _edata = .
                [!provide]                        PROVIDE (edata = .)
                0x00000000001adb69                . = .
                0x00000000001adb69                __bss_start = .

.bss            0x00000000001adb6c       0x78
 *(.dynbss)
 *(.bss .bss.* .gnu.linkonce.b.*)
 .bss           0x00000000001adb6c       0x76 C:\Users\uersu\AppData\Local\Temp\a.mingw.elf.mhjlZj.ltrans0.ltrans.o
 *fill*         0x00000000001adbe2        0x2 
 .bss           0x00000000001adbe4        0x0 obj/gcc8_a_support.o
 .bss           0x00000000001adbe4        0x0 obj/utilsasm.o
 *(COMMON)
                0x00000000001adbe4                . = ALIGN ((. != 0x0)?0x4:0x1)
                0x00000000001adbe4                . = ALIGN (0x4)
                0x00000000001adbe4                . = SEGMENT_START ("ldata-segment", .)
                0x00000000001adbe4                . = ALIGN (0x4)
                0x00000000001adbe4                _end = .
                [!provide]                        PROVIDE (end = .)
                0x00000000001adbe4                . = DATA_SEGMENT_END (.)

.stab
 *(.stab)

.stabstr
 *(.stabstr)

.stab.excl
 *(.stab.excl)

.stab.exclstr
 *(.stab.exclstr)

.stab.index
 *(.stab.index)

.stab.indexstr
 *(.stab.indexstr)

.comment        0x0000000000000000       0x12
 *(.comment)
 .comment       0x0000000000000000       0x12 C:\Users\uersu\AppData\Local\Temp\a.mingw.elf.mhjlZj.ltrans0.ltrans.o
                                         0x13 (size before relaxing)
 .comment       0x0000000000000012       0x13 C:\Users\uersu\AppData\Local\Temp\ccwIxaMQ.debug.temp.o
 .comment       0x0000000000000012       0x13 C:\Users\uersu\AppData\Local\Temp\ccWQnFpd.debug.temp.o
 .comment       0x0000000000000012       0x13 C:\Users\uersu\AppData\Local\Temp\ccOJ4Cez.debug.temp.o
 .comment       0x0000000000000012       0x13 C:\Users\uersu\AppData\Local\Temp\ccwrwalV.debug.temp.o
 .comment       0x0000000000000012       0x13 C:\Users\uersu\AppData\Local\Temp\ccc8D5Sk.debug.temp.o
 .comment       0x0000000000000012       0x13 C:\Users\uersu\AppData\Local\Temp\ccCwmoyJ.debug.temp.o
 .comment       0x0000000000000012       0x13 C:\Users\uersu\AppData\Local\Temp\ccwW5EQ7.debug.temp.o
 .comment       0x0000000000000012       0x13 C:\Users\uersu\AppData\Local\Temp\ccQdGOCv.debug.temp.o
 .comment       0x0000000000000012       0x13 C:\Users\uersu\AppData\Local\Temp\ccEMHrBX.debug.temp.o
 .comment       0x0000000000000012       0x13 C:\Users\uersu\AppData\Local\Temp\ccmAyk3n.debug.temp.o
 .comment       0x0000000000000012       0x13 C:\Users\uersu\AppData\Local\Temp\ccqZyRMO.debug.temp.o
 .comment       0x0000000000000012       0x13 C:\Users\uersu\AppData\Local\Temp\ccCKOTYi.debug.temp.o

.gnu.build.attributes
 *(.gnu.build.attributes .gnu.build.attributes.*)

.debug
 *(.debug)

.line
 *(.line)

.debug_srcinfo
 *(.debug_srcinfo)

.debug_sfnames
 *(.debug_sfnames)

.debug_aranges  0x0000000000000000       0x68
 *(.debug_aranges)
 .debug_aranges
                0x0000000000000000       0x28 C:\Users\uersu\AppData\Local\Temp\a.mingw.elf.mhjlZj.ltrans0.ltrans.o
 .debug_aranges
                0x0000000000000028       0x20 obj/gcc8_a_support.o
 .debug_aranges
                0x0000000000000048       0x20 obj/utilsasm.o

.debug_pubnames
 *(.debug_pubnames)

.debug_info     0x0000000000000000    0x20b22
 *(.debug_info .gnu.linkonce.wi.*)
 .debug_info    0x0000000000000000     0x6fcd C:\Users\uersu\AppData\Local\Temp\a.mingw.elf.mhjlZj.ltrans0.ltrans.o
 .debug_info    0x0000000000006fcd     0x191d C:\Users\uersu\AppData\Local\Temp\ccwIxaMQ.debug.temp.o
                0x0000000000006fcd                utils.c.b2618c9d
 .debug_info    0x00000000000088ea      0xa76 C:\Users\uersu\AppData\Local\Temp\ccWQnFpd.debug.temp.o
                0x00000000000088ea                rundemo.c.27f1c3b9
 .debug_info    0x0000000000009360      0x2f2 C:\Users\uersu\AppData\Local\Temp\ccOJ4Cez.debug.temp.o
                0x0000000000009360                zoom102.c.9d98608a
 .debug_info    0x0000000000009652     0x3d92 C:\Users\uersu\AppData\Local\Temp\ccwrwalV.debug.temp.o
                0x0000000000009652                main.c.661dc8bd
 .debug_info    0x000000000000d3e4      0xe8b C:\Users\uersu\AppData\Local\Temp\ccc8D5Sk.debug.temp.o
                0x000000000000d3e4                swscrollertest.c.bc79033e
 .debug_info    0x000000000000e26f     0x188b C:\Users\uersu\AppData\Local\Temp\ccCwmoyJ.debug.temp.o
                0x000000000000e26f                swscroller.c.187519bd
 .debug_info    0x000000000000fafa     0x314f C:\Users\uersu\AppData\Local\Temp\ccwW5EQ7.debug.temp.o
                0x000000000000fafa                zoom.c.8da07eea
 .debug_info    0x0000000000012c49     0x3f3e C:\Users\uersu\AppData\Local\Temp\ccQdGOCv.debug.temp.o
                0x0000000000012c49                zoomtest2.c.347717ff
 .debug_info    0x0000000000016b87     0x2f61 C:\Users\uersu\AppData\Local\Temp\ccEMHrBX.debug.temp.o
                0x0000000000016b87                coppertests.c.d6a0cf95
 .debug_info    0x0000000000019ae8      0x19b C:\Users\uersu\AppData\Local\Temp\ccmAyk3n.debug.temp.o
                0x0000000000019ae8                runtests.c.4b8b7632
 .debug_info    0x0000000000019c83     0x65b2 C:\Users\uersu\AppData\Local\Temp\ccqZyRMO.debug.temp.o
                0x0000000000019c83                zoomtest.c.d6b71322
 .debug_info    0x0000000000020235      0x8a1 C:\Users\uersu\AppData\Local\Temp\ccCKOTYi.debug.temp.o
                0x0000000000020235                gcc8_c_support.c.91e58f72
 .debug_info    0x0000000000020ad6       0x26 obj/gcc8_a_support.o
 .debug_info    0x0000000000020afc       0x26 obj/utilsasm.o

.debug_abbrev   0x0000000000000000     0x11f4
 *(.debug_abbrev)
 .debug_abbrev  0x0000000000000000       0xa4 C:\Users\uersu\AppData\Local\Temp\a.mingw.elf.mhjlZj.ltrans0.ltrans.o
 .debug_abbrev  0x00000000000000a4      0x14c C:\Users\uersu\AppData\Local\Temp\ccwIxaMQ.debug.temp.o
 .debug_abbrev  0x00000000000001f0       0xf4 C:\Users\uersu\AppData\Local\Temp\ccWQnFpd.debug.temp.o
 .debug_abbrev  0x00000000000002e4       0xda C:\Users\uersu\AppData\Local\Temp\ccOJ4Cez.debug.temp.o
 .debug_abbrev  0x00000000000003be      0x248 C:\Users\uersu\AppData\Local\Temp\ccwrwalV.debug.temp.o
 .debug_abbrev  0x0000000000000606       0xf1 C:\Users\uersu\AppData\Local\Temp\ccc8D5Sk.debug.temp.o
 .debug_abbrev  0x00000000000006f7      0x178 C:\Users\uersu\AppData\Local\Temp\ccCwmoyJ.debug.temp.o
 .debug_abbrev  0x000000000000086f      0x25a C:\Users\uersu\AppData\Local\Temp\ccwW5EQ7.debug.temp.o
 .debug_abbrev  0x0000000000000ac9      0x188 C:\Users\uersu\AppData\Local\Temp\ccQdGOCv.debug.temp.o
 .debug_abbrev  0x0000000000000c51      0x165 C:\Users\uersu\AppData\Local\Temp\ccEMHrBX.debug.temp.o
 .debug_abbrev  0x0000000000000db6       0x42 C:\Users\uersu\AppData\Local\Temp\ccmAyk3n.debug.temp.o
 .debug_abbrev  0x0000000000000df8      0x26e C:\Users\uersu\AppData\Local\Temp\ccqZyRMO.debug.temp.o
 .debug_abbrev  0x0000000000001066      0x166 C:\Users\uersu\AppData\Local\Temp\ccCKOTYi.debug.temp.o
 .debug_abbrev  0x00000000000011cc       0x14 obj/gcc8_a_support.o
 .debug_abbrev  0x00000000000011e0       0x14 obj/utilsasm.o

.debug_line     0x0000000000000000     0x8ede
 *(.debug_line .debug_line.* .debug_line_end)
 .debug_line    0x0000000000000000     0x6c77 C:\Users\uersu\AppData\Local\Temp\a.mingw.elf.mhjlZj.ltrans0.ltrans.o
 .debug_line    0x0000000000006c77      0x214 C:\Users\uersu\AppData\Local\Temp\ccwIxaMQ.debug.temp.o
 .debug_line    0x0000000000006e8b      0x154 C:\Users\uersu\AppData\Local\Temp\ccWQnFpd.debug.temp.o
 .debug_line    0x0000000000006fdf       0xdd C:\Users\uersu\AppData\Local\Temp\ccOJ4Cez.debug.temp.o
 .debug_line    0x00000000000070bc      0x49e C:\Users\uersu\AppData\Local\Temp\ccwrwalV.debug.temp.o
 .debug_line    0x000000000000755a      0x291 C:\Users\uersu\AppData\Local\Temp\ccc8D5Sk.debug.temp.o
 .debug_line    0x00000000000077eb      0x2c0 C:\Users\uersu\AppData\Local\Temp\ccCwmoyJ.debug.temp.o
 .debug_line    0x0000000000007aab      0x34a C:\Users\uersu\AppData\Local\Temp\ccwW5EQ7.debug.temp.o
 .debug_line    0x0000000000007df5      0x4a3 C:\Users\uersu\AppData\Local\Temp\ccQdGOCv.debug.temp.o
 .debug_line    0x0000000000008298      0x33a C:\Users\uersu\AppData\Local\Temp\ccEMHrBX.debug.temp.o
 .debug_line    0x00000000000085d2       0x5d C:\Users\uersu\AppData\Local\Temp\ccmAyk3n.debug.temp.o
 .debug_line    0x000000000000862f      0x4ba C:\Users\uersu\AppData\Local\Temp\ccqZyRMO.debug.temp.o
 .debug_line    0x0000000000008ae9      0x153 C:\Users\uersu\AppData\Local\Temp\ccCKOTYi.debug.temp.o
 .debug_line    0x0000000000008c3c       0xeb obj/gcc8_a_support.o
 .debug_line    0x0000000000008d27      0x1b7 obj/utilsasm.o

.debug_frame    0x0000000000000000     0x3304
 *(.debug_frame)
 .debug_frame   0x0000000000000000     0x3240 C:\Users\uersu\AppData\Local\Temp\a.mingw.elf.mhjlZj.ltrans0.ltrans.o
 .debug_frame   0x0000000000003240       0xc4 obj/gcc8_a_support.o

.debug_str      0x0000000000000000      0x849
 *(.debug_str)
 .debug_str     0x0000000000000000        0x0 C:\Users\uersu\AppData\Local\Temp\a.mingw.elf.mhjlZj.ltrans0.ltrans.o
 .debug_str     0x0000000000000000       0x24 C:\Users\uersu\AppData\Local\Temp\ccwIxaMQ.debug.temp.o
 .debug_str     0x0000000000000024        0x0 C:\Users\uersu\AppData\Local\Temp\ccWQnFpd.debug.temp.o
 .debug_str     0x0000000000000024       0x18 C:\Users\uersu\AppData\Local\Temp\ccOJ4Cez.debug.temp.o
 .debug_str     0x000000000000003c      0x111 C:\Users\uersu\AppData\Local\Temp\ccwrwalV.debug.temp.o
 .debug_str     0x000000000000014d       0x5f C:\Users\uersu\AppData\Local\Temp\ccc8D5Sk.debug.temp.o
 .debug_str     0x00000000000001ac       0xb3 C:\Users\uersu\AppData\Local\Temp\ccCwmoyJ.debug.temp.o
 .debug_str     0x000000000000025f      0x134 C:\Users\uersu\AppData\Local\Temp\ccwW5EQ7.debug.temp.o
 .debug_str     0x0000000000000393      0x122 C:\Users\uersu\AppData\Local\Temp\ccQdGOCv.debug.temp.o
 .debug_str     0x00000000000004b5       0xc0 C:\Users\uersu\AppData\Local\Temp\ccEMHrBX.debug.temp.o
 .debug_str     0x0000000000000575        0x0 C:\Users\uersu\AppData\Local\Temp\ccmAyk3n.debug.temp.o
 .debug_str     0x0000000000000575      0x1b2 C:\Users\uersu\AppData\Local\Temp\ccqZyRMO.debug.temp.o
 .debug_str     0x0000000000000727       0x5c C:\Users\uersu\AppData\Local\Temp\ccCKOTYi.debug.temp.o
 .debug_str     0x0000000000000783       0x8a obj/gcc8_a_support.o
 .debug_str     0x000000000000080d       0x3c obj/utilsasm.o
                                         0x7c (size before relaxing)

.debug_loc
 *(.debug_loc)

.debug_macinfo
 *(.debug_macinfo)

.debug_weaknames
 *(.debug_weaknames)

.debug_funcnames
 *(.debug_funcnames)

.debug_typenames
 *(.debug_typenames)

.debug_varnames
 *(.debug_varnames)

.debug_pubtypes
 *(.debug_pubtypes)

.debug_ranges   0x0000000000000000       0x18
 *(.debug_ranges)
 .debug_ranges  0x0000000000000000       0x18 C:\Users\uersu\AppData\Local\Temp\a.mingw.elf.mhjlZj.ltrans0.ltrans.o

.debug_macro
 *(.debug_macro)

.debug_addr
 *(.debug_addr)

.gnu.attributes
 *(.gnu.attributes)

/DISCARD/
 *(.note.GNU-stack)
 *(.gnu_debuglink)
 *(.gnu.lto_*)
OUTPUT(a.mingw.elf elf32-m68k)
