
a.mingw.elf:     file format elf32-m68k


Disassembly of section .text:

00000000 <_start>:
extern void (*__init_array_start[])() __attribute__((weak));
extern void (*__init_array_end[])() __attribute__((weak));
extern void (*__fini_array_start[])() __attribute__((weak));
extern void (*__fini_array_end[])() __attribute__((weak));

__attribute__((used)) __attribute__((section(".text.unlikely"))) void _start() {
       0:	518f           	subq.l #8,sp
	// initialize globals, ctors etc.
	unsigned long count;
	unsigned long i;

	count = __preinit_array_end - __preinit_array_start;
       2:	203c 0000 a60a 	move.l #42506,d0
       8:	0480 0000 a60a 	subi.l #42506,d0
       e:	e480           	asr.l #2,d0
      10:	2e80           	move.l d0,(sp)
	for (i = 0; i < count; i++)
      12:	42af 0004      	clr.l 4(sp)
      16:	601a           	bra.s 32 <_start+0x32>
		__preinit_array_start[i]();
      18:	202f 0004      	move.l 4(sp),d0
      1c:	d080           	add.l d0,d0
      1e:	2240           	movea.l d0,a1
      20:	d3c0           	adda.l d0,a1
      22:	41f9 0000 a60a 	lea a60a <__fini_array_end>,a0
      28:	2071 8800      	movea.l (0,a1,a0.l),a0
      2c:	4e90           	jsr (a0)
	for (i = 0; i < count; i++)
      2e:	52af 0004      	addq.l #1,4(sp)
      32:	202f 0004      	move.l 4(sp),d0
      36:	b097           	cmp.l (sp),d0
      38:	65de           	bcs.s 18 <_start+0x18>

	count = __init_array_end - __init_array_start;
      3a:	203c 0000 a60a 	move.l #42506,d0
      40:	0480 0000 a60a 	subi.l #42506,d0
      46:	e480           	asr.l #2,d0
      48:	2e80           	move.l d0,(sp)
	for (i = 0; i < count; i++)
      4a:	42af 0004      	clr.l 4(sp)
      4e:	601a           	bra.s 6a <_start+0x6a>
		__init_array_start[i]();
      50:	202f 0004      	move.l 4(sp),d0
      54:	d080           	add.l d0,d0
      56:	2240           	movea.l d0,a1
      58:	d3c0           	adda.l d0,a1
      5a:	41f9 0000 a60a 	lea a60a <__fini_array_end>,a0
      60:	2071 8800      	movea.l (0,a1,a0.l),a0
      64:	4e90           	jsr (a0)
	for (i = 0; i < count; i++)
      66:	52af 0004      	addq.l #1,4(sp)
      6a:	202f 0004      	move.l 4(sp),d0
      6e:	b097           	cmp.l (sp),d0
      70:	65de           	bcs.s 50 <_start+0x50>

	main();
      72:	4eb9 0000 0632 	jsr 632 <main>

	// call dtors
	count = __fini_array_end - __fini_array_start;
      78:	203c 0000 a60a 	move.l #42506,d0
      7e:	0480 0000 a60a 	subi.l #42506,d0
      84:	e480           	asr.l #2,d0
      86:	2e80           	move.l d0,(sp)
	for (i = count; i > 0; i--)
      88:	2f57 0004      	move.l (sp),4(sp)
      8c:	601c           	bra.s aa <_start+0xaa>
		__fini_array_start[i - 1]();
      8e:	202f 0004      	move.l 4(sp),d0
      92:	5380           	subq.l #1,d0
      94:	d080           	add.l d0,d0
      96:	2240           	movea.l d0,a1
      98:	d3c0           	adda.l d0,a1
      9a:	41f9 0000 a60a 	lea a60a <__fini_array_end>,a0
      a0:	2071 8800      	movea.l (0,a1,a0.l),a0
      a4:	4e90           	jsr (a0)
	for (i = count; i > 0; i--)
      a6:	53af 0004      	subq.l #1,4(sp)
      aa:	4aaf 0004      	tst.l 4(sp)
      ae:	66de           	bne.s 8e <_start+0x8e>
}
      b0:	508f           	addq.l #8,sp
      b2:	4e75           	rts

000000b4 <WaitBlt>:
ULONG volatile *DrawCopper;
ULONG volatile *ViewCopper;

volatile struct Custom *hw;

inline void WaitBlt() {
      b4:	598f           	subq.l #4,sp
	UWORD tst=*(volatile UWORD*)&hw->dmaconr; //for compatiblity a1000
      b6:	2079 004d 2c1c 	movea.l 4d2c1c <hw>,a0
      bc:	3f68 0002 0002 	move.w 2(a0),2(sp)
	(void)tst;
	while (*(volatile UWORD*)&hw->dmaconr&(1<<14)) {} //blitter busy wait
      c2:	2079 004d 2c1c 	movea.l 4d2c1c <hw>,a0
      c8:	3028 0002      	move.w 2(a0),d0
      cc:	3000           	move.w d0,d0
      ce:	0280 0000 ffff 	andi.l #65535,d0
      d4:	0280 0000 4000 	andi.l #16384,d0
      da:	66e6           	bne.s c2 <WaitBlt+0xe>
}
      dc:	588f           	addq.l #4,sp
      de:	4e75           	rts

000000e0 <FreeDisplay>:
           0x01B40CC9,0x01B60DDA,0x01B80ED6,0x01BA0EEC,0x01BC0EEA, 0x01BE0FFF };*/


ULONG ClColor[] = { 0x1800ed9,0x1820db7,0x1840cdb,0x1860bb9,0x1880ab4,0x18a09a7,0x18c0875,0x18e0886,0x1900763,0x1920662,0x1940331,0x19608ad,0x1980272,0x19a0131,0x19c0463,0x19e0584,0x1a00342,
                    0x1a20121,0x1a40222,0x1a60110,0x1a80793,0x1aa0ab4,0x1ac09a7,0x1ae0cd5,0x1b00cc2,0x1b20886,0x1b40fff,0x1b60431,0x1b80db7,0x1ba0740,0x1bc0875,0x1be0000 };
void FreeDisplay( int clsize, int bplsize) {
      e0:	4fef fff0      	lea -16(sp),sp
      e4:	2f0e           	move.l a6,-(sp)
  if( Copperlist1 != 0) FreeMem( Copperlist1, clsize);
      e6:	2039 004d 2c04 	move.l 4d2c04 <Copperlist1>,d0
      ec:	6722           	beq.s 110 <FreeDisplay+0x30>
      ee:	2f79 004d 2c04 	move.l 4d2c04 <Copperlist1>,16(sp)
      f4:	0010 
      f6:	2f6f 0018 000c 	move.l 24(sp),12(sp)
      fc:	2039 004d 2c20 	move.l 4d2c20 <SysBase>,d0
     102:	2c40           	movea.l d0,a6
     104:	226f 0010      	movea.l 16(sp),a1
     108:	202f 000c      	move.l 12(sp),d0
     10c:	4eae ff2e      	jsr -210(a6)
  if( Copperlist2 != 0) FreeMem( Copperlist2, clsize);
     110:	2039 004d 2c08 	move.l 4d2c08 <Copperlist2>,d0
     116:	6722           	beq.s 13a <FreeDisplay+0x5a>
     118:	2f79 004d 2c08 	move.l 4d2c08 <Copperlist2>,8(sp)
     11e:	0008 
     120:	2f6f 0018 0004 	move.l 24(sp),4(sp)
     126:	2039 004d 2c20 	move.l 4d2c20 <SysBase>,d0
     12c:	2c40           	movea.l d0,a6
     12e:	226f 0008      	movea.l 8(sp),a1
     132:	202f 0004      	move.l 4(sp),d0
     136:	4eae ff2e      	jsr -210(a6)
  /*if( Bitplane1 != 0) FreeMem( Bitplane1, bplsize);
  if( Bitplane2 != 0) FreeMem( Bitplane2, bplsize);*/
}
     13a:	2c5f           	movea.l (sp)+,a6
     13c:	4fef 0010      	lea 16(sp),sp
     140:	4e75           	rts

00000142 <SetBplPointers>:

void SetBplPointers() {
     142:	4fef fff4      	lea -12(sp),sp
  UWORD highword = (ULONG)DrawBuffer >> 16;
     146:	2039 004d 2c0c 	move.l 4d2c0c <DrawBuffer>,d0
     14c:	4240           	clr.w d0
     14e:	4840           	swap d0
     150:	3f40 000a      	move.w d0,10(sp)
  UWORD lowword = (ULONG)DrawBuffer & 0xffff;
     154:	2039 004d 2c0c 	move.l 4d2c0c <DrawBuffer>,d0
     15a:	3f40 0008      	move.w d0,8(sp)
  
  UWORD *copword = (UWORD *) DrawCopper;
     15e:	2f79 004d 2c14 	move.l 4d2c14 <DrawCopper>,4(sp)
     164:	0004 
  copword[COPBPL1LOW] = lowword;
     166:	307c 0076      	movea.w #118,a0
     16a:	d1ef 0004      	adda.l 4(sp),a0
     16e:	30af 0008      	move.w 8(sp),(a0)
  copword[COPBPL1HIGH] = highword;
     172:	307c 0072      	movea.w #114,a0
     176:	d1ef 0004      	adda.l 4(sp),a0
     17a:	30af 000a      	move.w 10(sp),(a0)
  
  ULONG tmp = (ULONG) DrawBuffer;
     17e:	2039 004d 2c0c 	move.l 4d2c0c <DrawBuffer>,d0
     184:	2e80           	move.l d0,(sp)
  DrawBuffer = ViewBuffer;
     186:	2039 004d 2c10 	move.l 4d2c10 <ViewBuffer>,d0
     18c:	23c0 004d 2c0c 	move.l d0,4d2c0c <DrawBuffer>
  ViewBuffer = (ULONG *) tmp;
     192:	2017           	move.l (sp),d0
     194:	23c0 004d 2c10 	move.l d0,4d2c10 <ViewBuffer>
}
     19a:	4fef 000c      	lea 12(sp),sp
     19e:	4e75           	rts

000001a0 <SwapCl>:

void SwapCl() {
     1a0:	598f           	subq.l #4,sp
  ULONG tmp = (ULONG) DrawCopper;
     1a2:	2039 004d 2c14 	move.l 4d2c14 <DrawCopper>,d0
     1a8:	2e80           	move.l d0,(sp)
  DrawCopper = ViewCopper;
     1aa:	2039 004d 2c18 	move.l 4d2c18 <ViewCopper>,d0
     1b0:	23c0 004d 2c14 	move.l d0,4d2c14 <DrawCopper>
  ViewCopper = (ULONG *)tmp;
     1b6:	2017           	move.l (sp),d0
     1b8:	23c0 004d 2c18 	move.l d0,4d2c18 <ViewCopper>
  hw->cop1lc = (ULONG) ViewCopper;
     1be:	2039 004d 2c18 	move.l 4d2c18 <ViewCopper>,d0
     1c4:	2079 004d 2c1c 	movea.l 4d2c1c <hw>,a0
     1ca:	2140 0080      	move.l d0,128(a0)
  hw->copjmp1 = tmp;
     1ce:	2079 004d 2c1c 	movea.l 4d2c1c <hw>,a0
     1d4:	2017           	move.l (sp),d0
     1d6:	3140 0088      	move.w d0,136(a0)
}
     1da:	588f           	addq.l #4,sp
     1dc:	4e75           	rts

000001de <Utils_CopyMem>:

void Utils_CopyMem( ULONG *source, ULONG *destination, ULONG size) {
     1de:	598f           	subq.l #4,sp
     1e0:	2f02           	move.l d2,-(sp)
  for( int i=0;i<size;i++) 
     1e2:	42af 0004      	clr.l 4(sp)
     1e6:	6024           	bra.s 20c <Utils_CopyMem+0x2e>
    *destination++ = *source++;  
     1e8:	222f 000c      	move.l 12(sp),d1
     1ec:	2001           	move.l d1,d0
     1ee:	5880           	addq.l #4,d0
     1f0:	2f40 000c      	move.l d0,12(sp)
     1f4:	202f 0010      	move.l 16(sp),d0
     1f8:	2400           	move.l d0,d2
     1fa:	5882           	addq.l #4,d2
     1fc:	2f42 0010      	move.l d2,16(sp)
     200:	2041           	movea.l d1,a0
     202:	2210           	move.l (a0),d1
     204:	2040           	movea.l d0,a0
     206:	2081           	move.l d1,(a0)
  for( int i=0;i<size;i++) 
     208:	52af 0004      	addq.l #1,4(sp)
     20c:	202f 0004      	move.l 4(sp),d0
     210:	b0af 0014      	cmp.l 20(sp),d0
     214:	65d2           	bcs.s 1e8 <Utils_CopyMem+0xa>
}
     216:	241f           	move.l (sp)+,d2
     218:	588f           	addq.l #4,sp
     21a:	4e75           	rts

0000021c <Utils_FillLong>:

void Utils_FillLong( ULONG *target, ULONG pattern, ULONG lines, 
                                            ULONG linelength, ULONG mod ) {
     21c:	518f           	subq.l #8,sp
  for( int i=0;i<lines; i++) {
     21e:	42af 0004      	clr.l 4(sp)
     222:	6030           	bra.s 254 <Utils_FillLong+0x38>
    for( int i2=0;i2<linelength;i2++) 
     224:	4297           	clr.l (sp)
     226:	6014           	bra.s 23c <Utils_FillLong+0x20>
      *target++ = pattern;
     228:	202f 000c      	move.l 12(sp),d0
     22c:	2200           	move.l d0,d1
     22e:	5881           	addq.l #4,d1
     230:	2f41 000c      	move.l d1,12(sp)
     234:	2040           	movea.l d0,a0
     236:	20af 0010      	move.l 16(sp),(a0)
    for( int i2=0;i2<linelength;i2++) 
     23a:	5297           	addq.l #1,(sp)
     23c:	2017           	move.l (sp),d0
     23e:	b0af 0018      	cmp.l 24(sp),d0
     242:	65e4           	bcs.s 228 <Utils_FillLong+0xc>
    target += mod;
     244:	202f 001c      	move.l 28(sp),d0
     248:	d080           	add.l d0,d0
     24a:	d080           	add.l d0,d0
     24c:	d1af 000c      	add.l d0,12(sp)
  for( int i=0;i<lines; i++) {
     250:	52af 0004      	addq.l #1,4(sp)
     254:	202f 0004      	move.l 4(sp),d0
     258:	b0af 0014      	cmp.l 20(sp),d0
     25c:	65c6           	bcs.s 224 <Utils_FillLong+0x8>
  }
}
     25e:	508f           	addq.l #8,sp
     260:	4e75           	rts

00000262 <MouseLeft>:

short MouseLeft(){return !((*(volatile UBYTE*)0xbfe001)&64);}	
     262:	207c 00bf e001 	movea.l #12574721,a0
     268:	1010           	move.b (a0),d0
     26a:	1000           	move.b d0,d0
     26c:	0280 0000 00ff 	andi.l #255,d0
     272:	7240           	moveq #64,d1
     274:	c081           	and.l d1,d0
     276:	57c0           	seq d0
     278:	4400           	neg.b d0
     27a:	1000           	move.b d0,d0
     27c:	0240 00ff      	andi.w #255,d0
     280:	4e75           	rts

00000282 <MouseRight>:
     282:	207c 00df f016 	movea.l #14675990,a0
     288:	3010           	move.w (a0),d0
     28a:	3000           	move.w d0,d0
     28c:	0280 0000 ffff 	andi.l #65535,d0
     292:	0280 0000 0400 	andi.l #1024,d0
     298:	57c0           	seq d0
     29a:	4400           	neg.b d0
     29c:	1000           	move.b d0,d0
     29e:	0240 00ff      	andi.w #255,d0
     2a2:	4e75           	rts

000002a4 <interruptHandler.lto_priv.0>:
#include "zoom.h"
#include "zoom102.h"

//volatile int frameCounter = 0;

static __attribute__((interrupt)) void interruptHandler() {
     2a4:	2f08           	move.l a0,-(sp)
	hw->intreq=(1<<INTB_VERTB); hw->intreq=(1<<INTB_VERTB); //reset vbl req. twice for a4000 bug.
     2a6:	2079 004d 2c1c 	movea.l 4d2c1c <hw>,a0
     2ac:	317c 0020 009c 	move.w #32,156(a0)
     2b2:	2079 004d 2c1c 	movea.l 4d2c1c <hw>,a0
     2b8:	317c 0020 009c 	move.w #32,156(a0)
	// DEMO - increment frameCounter
	//frameCounter++;
  //Zoom_VblankHandler();
}
     2be:	205f           	movea.l (sp)+,a0
     2c0:	4e73           	rte

000002c2 <RunDemo>:

void RunDemo() {
//               5432109876543210
  hw->dmacon = 0b1000011111111111;
     2c2:	2079 004d 2c1c 	movea.l 4d2c1c <hw>,a0
     2c8:	317c 87ff 0096 	move.w #-30721,150(a0)
	hw->intreq=1<<INTB_VERTB;//reset vbl req*/
  //PrepareDisplay();
  //CopyMemQuick( Zoom_StartImage, DrawBuffer, ZMBPLSIZE);
  
	while(1) {
		WaitVbl();
     2ce:	4eba 0260      	jsr 530 <WaitVbl>(pc)
    RunFrame();
     2d2:	4eba 0028      	jsr 2fc <RunFrame>(pc)
     2d6:	60f6           	bra.s 2ce <RunDemo+0xc>

000002d8 <SetInterrupt>:
  
	//SetInterruptHandler((APTR)interruptHandler);
}

void SetInterrupt() {
  SetInterruptHandler((APTR)interruptHandler);
     2d8:	487a ffca      	pea 2a4 <interruptHandler.lto_priv.0>(pc)
     2dc:	4eba 0236      	jsr 514 <SetInterruptHandler>(pc)
     2e0:	588f           	addq.l #4,sp
	hw->intena=(1<<INTB_SETCLR)|(1<<INTB_INTEN)|(1<<INTB_VERTB);
     2e2:	2079 004d 2c1c 	movea.l 4d2c1c <hw>,a0
     2e8:	317c c020 009a 	move.w #-16352,154(a0)
	hw->intreq=1<<INTB_VERTB;//reset vbl req
     2ee:	2079 004d 2c1c 	movea.l 4d2c1c <hw>,a0
     2f4:	317c 0020 009c 	move.w #32,156(a0)
}
     2fa:	4e75           	rts

000002fc <RunFrame>:
  else
    Zoom_ZoomIntoPicture( (UWORD *)ViewBuffer, (UWORD *)DrawBuffer, Zoom_LevelOfZoom, 5 );

  Zoom_Blit4ZoomFinished = 1;
  while( tmp == Zoom_LevelOfZoom) { }*/
     2fc:	4e75           	rts

000002fe <Zoom_InsertShift>:
           0x01800f00, 0x01800000, 0x1800f00, 0x1800000, 0x01800f00, 0x01800000,
           0x1800f00, 0x1800000, 0x01800f00, 0x01800000, 0x01800f00, 0x01800000,
           0x01800f00, 0x01800000, 0x01800f00, 0x01800000, 0x01800f00, 0x01800000, 
           0x01800f00, 0x01800000 };*/

void Zoom_InsertShift( UWORD *copperlist, UWORD *values4shift) {
     2fe:	4fef fff4      	lea -12(sp),sp
     302:	2f02           	move.l d2,-(sp)
  for(int i = 0; i<6;i++) {
     304:	42af 000c      	clr.l 12(sp)
     308:	601e           	bra.s 328 <Zoom_InsertShift+0x2a>
    *copperlist = *values4shift++;
     30a:	202f 0018      	move.l 24(sp),d0
     30e:	2200           	move.l d0,d1
     310:	5481           	addq.l #2,d1
     312:	2f41 0018      	move.l d1,24(sp)
     316:	2040           	movea.l d0,a0
     318:	3010           	move.w (a0),d0
     31a:	206f 0014      	movea.l 20(sp),a0
     31e:	3080           	move.w d0,(a0)
    copperlist += 2;
     320:	58af 0014      	addq.l #4,20(sp)
  for(int i = 0; i<6;i++) {
     324:	52af 000c      	addq.l #1,12(sp)
     328:	7005           	moveq #5,d0
     32a:	b0af 000c      	cmp.l 12(sp),d0
     32e:	6cda           	bge.s 30a <Zoom_InsertShift+0xc>
  }
  copperlist--;
     330:	55af 0014      	subq.l #2,20(sp)
  *copperlist++ = *values4shift++;
     334:	222f 0018      	move.l 24(sp),d1
     338:	2401           	move.l d1,d2
     33a:	5482           	addq.l #2,d2
     33c:	2f42 0018      	move.l d2,24(sp)
     340:	202f 0014      	move.l 20(sp),d0
     344:	2400           	move.l d0,d2
     346:	5482           	addq.l #2,d2
     348:	2f42 0014      	move.l d2,20(sp)
     34c:	2041           	movea.l d1,a0
     34e:	3210           	move.w (a0),d1
     350:	2040           	movea.l d0,a0
     352:	3081           	move.w d1,(a0)
  *copperlist = *values4shift++;
     354:	202f 0018      	move.l 24(sp),d0
     358:	2200           	move.l d0,d1
     35a:	5481           	addq.l #2,d1
     35c:	2f41 0018      	move.l d1,24(sp)
     360:	2040           	movea.l d0,a0
     362:	3010           	move.w (a0),d0
     364:	206f 0014      	movea.l 20(sp),a0
     368:	3080           	move.w d0,(a0)
  copperlist += 2;
     36a:	58af 0014      	addq.l #4,20(sp)
  for(int i = 0; i<10;i++) {
     36e:	42af 0008      	clr.l 8(sp)
     372:	601e           	bra.s 392 <Zoom_InsertShift+0x94>
    *copperlist = *values4shift++;
     374:	202f 0018      	move.l 24(sp),d0
     378:	2200           	move.l d0,d1
     37a:	5481           	addq.l #2,d1
     37c:	2f41 0018      	move.l d1,24(sp)
     380:	2040           	movea.l d0,a0
     382:	3010           	move.w (a0),d0
     384:	206f 0014      	movea.l 20(sp),a0
     388:	3080           	move.w d0,(a0)
    copperlist += 2;
     38a:	58af 0014      	addq.l #4,20(sp)
  for(int i = 0; i<10;i++) {
     38e:	52af 0008      	addq.l #1,8(sp)
     392:	7009           	moveq #9,d0
     394:	b0af 0008      	cmp.l 8(sp),d0
     398:	6cda           	bge.s 374 <Zoom_InsertShift+0x76>
  }
  copperlist--;
     39a:	55af 0014      	subq.l #2,20(sp)
  *copperlist++ = *values4shift++;
     39e:	222f 0018      	move.l 24(sp),d1
     3a2:	2401           	move.l d1,d2
     3a4:	5482           	addq.l #2,d2
     3a6:	2f42 0018      	move.l d2,24(sp)
     3aa:	202f 0014      	move.l 20(sp),d0
     3ae:	2400           	move.l d0,d2
     3b0:	5482           	addq.l #2,d2
     3b2:	2f42 0014      	move.l d2,20(sp)
     3b6:	2041           	movea.l d1,a0
     3b8:	3210           	move.w (a0),d1
     3ba:	2040           	movea.l d0,a0
     3bc:	3081           	move.w d1,(a0)
  *copperlist = *values4shift++;
     3be:	202f 0018      	move.l 24(sp),d0
     3c2:	2200           	move.l d0,d1
     3c4:	5481           	addq.l #2,d1
     3c6:	2f41 0018      	move.l d1,24(sp)
     3ca:	2040           	movea.l d0,a0
     3cc:	3010           	move.w (a0),d0
     3ce:	206f 0014      	movea.l 20(sp),a0
     3d2:	3080           	move.w d0,(a0)
  copperlist += 2;
     3d4:	58af 0014      	addq.l #4,20(sp)
  for(int i = 0; i<7;i++) {
     3d8:	42af 0004      	clr.l 4(sp)
     3dc:	601e           	bra.s 3fc <Zoom_InsertShift+0xfe>
    *copperlist = *values4shift++;
     3de:	202f 0018      	move.l 24(sp),d0
     3e2:	2200           	move.l d0,d1
     3e4:	5481           	addq.l #2,d1
     3e6:	2f41 0018      	move.l d1,24(sp)
     3ea:	2040           	movea.l d0,a0
     3ec:	3010           	move.w (a0),d0
     3ee:	206f 0014      	movea.l 20(sp),a0
     3f2:	3080           	move.w d0,(a0)
    copperlist += 2;
     3f4:	58af 0014      	addq.l #4,20(sp)
  for(int i = 0; i<7;i++) {
     3f8:	52af 0004      	addq.l #1,4(sp)
     3fc:	7006           	moveq #6,d0
     3fe:	b0af 0004      	cmp.l 4(sp),d0
     402:	6cda           	bge.s 3de <Zoom_InsertShift+0xe0>
  }
}
     404:	241f           	move.l (sp)+,d2
     406:	4fef 000c      	lea 12(sp),sp
     40a:	4e75           	rts

0000040c <Zoom_Shrink102>:

void Zoom_Shrink102( UWORD levelofshrink, UWORD *copperlist )  {
     40c:	518f           	subq.l #8,sp
     40e:	202f 000c      	move.l 12(sp),d0
     412:	3000           	move.w d0,d0
     414:	3f40 0002      	move.w d0,2(sp)

  
  UWORD *values4shift = Values4Shift+levelofshrink*108;
     418:	7200           	moveq #0,d1
     41a:	322f 0002      	move.w 2(sp),d1
     41e:	2001           	move.l d1,d0
     420:	d080           	add.l d0,d0
     422:	d081           	add.l d1,d0
     424:	2200           	move.l d0,d1
     426:	e789           	lsl.l #3,d1
     428:	d081           	add.l d1,d0
     42a:	e788           	lsl.l #3,d0
     42c:	2200           	move.l d0,d1
     42e:	0681 0000 a924 	addi.l #43300,d1
     434:	2f41 0004      	move.l d1,4(sp)
  //copperlist+=3+73*2;
  Zoom_InsertShift( copperlist+3+73*2, values4shift);
     438:	202f 0010      	move.l 16(sp),d0
     43c:	0680 0000 012a 	addi.l #298,d0
     442:	2f2f 0004      	move.l 4(sp),-(sp)
     446:	2f00           	move.l d0,-(sp)
     448:	4eba feb4      	jsr 2fe <Zoom_InsertShift>(pc)
     44c:	508f           	addq.l #8,sp
  Zoom_InsertShift( copperlist+63+73*2, values4shift+27);
     44e:	7236           	moveq #54,d1
     450:	d2af 0004      	add.l 4(sp),d1
     454:	202f 0010      	move.l 16(sp),d0
     458:	0680 0000 01a2 	addi.l #418,d0
     45e:	2f01           	move.l d1,-(sp)
     460:	2f00           	move.l d0,-(sp)
     462:	4eba fe9a      	jsr 2fe <Zoom_InsertShift>(pc)
     466:	508f           	addq.l #8,sp
  Zoom_InsertShift( copperlist+119+73*2, values4shift+54);
     468:	726c           	moveq #108,d1
     46a:	d2af 0004      	add.l 4(sp),d1
     46e:	202f 0010      	move.l 16(sp),d0
     472:	0680 0000 0212 	addi.l #530,d0
     478:	2f01           	move.l d1,-(sp)
     47a:	2f00           	move.l d0,-(sp)
     47c:	4eba fe80      	jsr 2fe <Zoom_InsertShift>(pc)
     480:	508f           	addq.l #8,sp
  Zoom_InsertShift( copperlist+175+73*2, values4shift+81);
     482:	222f 0004      	move.l 4(sp),d1
     486:	0681 0000 00a2 	addi.l #162,d1
     48c:	202f 0010      	move.l 16(sp),d0
     490:	0680 0000 0282 	addi.l #642,d0
     496:	2f01           	move.l d1,-(sp)
     498:	2f00           	move.l d0,-(sp)
     49a:	4eba fe62      	jsr 2fe <Zoom_InsertShift>(pc)
     49e:	508f           	addq.l #8,sp
  for(int i = 0; i<30;i++) {
    *copperlist = *values4shift++;
    copperlist += 2;
  }*/
  
}
     4a0:	508f           	addq.l #8,sp
     4a2:	4e75           	rts

000004a4 <GetVBR>:
volatile static APTR VBR=0;
static APTR SystemIrq;
 
struct View *ActiView;

static APTR GetVBR(void) {
     4a4:	4fef ffec      	lea -20(sp),sp
     4a8:	2f0e           	move.l a6,-(sp)
     4aa:	2f07           	move.l d7,-(sp)
	APTR vbr = 0;
     4ac:	42af 0018      	clr.l 24(sp)
	UWORD getvbr[] = { 0x4e7a, 0x0801, 0x4e73 }; // MOVEC.L VBR,D0 RTE
     4b0:	3f7c 4e7a 000a 	move.w #20090,10(sp)
     4b6:	3f7c 0801 000c 	move.w #2049,12(sp)
     4bc:	3f7c 4e73 000e 	move.w #20083,14(sp)

	if (SysBase->AttnFlags & AFF_68010) 
     4c2:	2079 004d 2c20 	movea.l 4d2c20 <SysBase>,a0
     4c8:	3028 0128      	move.w 296(a0),d0
     4cc:	3000           	move.w d0,d0
     4ce:	0280 0000 ffff 	andi.l #65535,d0
     4d4:	7201           	moveq #1,d1
     4d6:	c081           	and.l d1,d0
     4d8:	672c           	beq.s 506 <GetVBR+0x62>
		vbr = (APTR)Supervisor((ULONG (*)())getvbr);
     4da:	41ef 001c      	lea 28(sp),a0
     4de:	41e8 ffee      	lea -18(a0),a0
     4e2:	2f48 0014      	move.l a0,20(sp)
     4e6:	2039 004d 2c20 	move.l 4d2c20 <SysBase>,d0
     4ec:	2c40           	movea.l d0,a6
     4ee:	2e2f 0014      	move.l 20(sp),d7
     4f2:	cf8d           	exg d7,a5
     4f4:	4eae ffe2      	jsr -30(a6)
     4f8:	cf8d           	exg d7,a5
     4fa:	2f40 0010      	move.l d0,16(sp)
     4fe:	202f 0010      	move.l 16(sp),d0
     502:	2f40 0018      	move.l d0,24(sp)

	return vbr;
     506:	202f 0018      	move.l 24(sp),d0
}
     50a:	2e1f           	move.l (sp)+,d7
     50c:	2c5f           	movea.l (sp)+,a6
     50e:	4fef 0014      	lea 20(sp),sp
     512:	4e75           	rts

00000514 <SetInterruptHandler>:

void SetInterruptHandler(APTR interrupt) {
	*(volatile APTR*)(((UBYTE*)VBR)+0x6c) = interrupt;
     514:	2079 004d 2c38 	movea.l 4d2c38 <VBR>,a0
     51a:	41e8 006c      	lea 108(a0),a0
     51e:	20af 0004      	move.l 4(sp),(a0)
}
     522:	4e75           	rts

00000524 <GetInterruptHandler>:

APTR GetInterruptHandler() {
	return *(volatile APTR*)(((UBYTE*)VBR)+0x6c);
     524:	2079 004d 2c38 	movea.l 4d2c38 <VBR>,a0
     52a:	2028 006c      	move.l 108(a0),d0
}
     52e:	4e75           	rts

00000530 <WaitVbl>:

//vblank begins at vpos 312 hpos 1 and ends at vpos 25 hpos 1
//vsync begins at line 2 hpos 132 and ends at vpos 5 hpos 18 
void WaitVbl() {
     530:	518f           	subq.l #8,sp
	while (1) {
		volatile ULONG vpos=*(volatile ULONG*)0xDFF004;
     532:	207c 00df f004 	movea.l #14675972,a0
     538:	2010           	move.l (a0),d0
     53a:	2e80           	move.l d0,(sp)
		vpos&=0x1ff00;
     53c:	2017           	move.l (sp),d0
     53e:	0280 0001 ff00 	andi.l #130816,d0
     544:	2e80           	move.l d0,(sp)
		if (vpos!=(311<<8))
     546:	2017           	move.l (sp),d0
     548:	0c80 0001 3700 	cmpi.l #79616,d0
     54e:	67e2           	beq.s 532 <WaitVbl+0x2>
			break;
	}
	while (1) {
		volatile ULONG vpos=*(volatile ULONG*)0xDFF004;
     550:	207c 00df f004 	movea.l #14675972,a0
     556:	2010           	move.l (a0),d0
     558:	2f40 0004      	move.l d0,4(sp)
		vpos&=0x1ff00;
     55c:	202f 0004      	move.l 4(sp),d0
     560:	0280 0001 ff00 	andi.l #130816,d0
     566:	2f40 0004      	move.l d0,4(sp)
		if (vpos==(311<<8))
     56a:	202f 0004      	move.l 4(sp),d0
     56e:	0c80 0001 3700 	cmpi.l #79616,d0
     574:	66da           	bne.s 550 <WaitVbl+0x20>
			break;
	}
}
     576:	508f           	addq.l #8,sp
     578:	4e75           	rts

0000057a <TakeSystem>:

	WaitVbl();
	WaitVbl();*/


	VBR=GetVBR();
     57a:	4eba ff28      	jsr 4a4 <GetVBR>(pc)
     57e:	23c0 004d 2c38 	move.l d0,4d2c38 <VBR>
	SystemIrq=GetInterruptHandler(); //store interrupt register
     584:	4eba ff9e      	jsr 524 <GetInterruptHandler>(pc)
     588:	23c0 004d 2c3c 	move.l d0,4d2c3c <SystemIrq>
}
     58e:	4e75           	rts

00000590 <FreeSystem>:

	//restore interrupts
	//SetInterruptHandler(SystemIrq);

	/*Restore system copper list(s). */
	custom->cop1lc=(ULONG)GfxBase->copinit;
     590:	2079 004d 2c2c 	movea.l 4d2c2c <GfxBase>,a0
     596:	2028 0026      	move.l 38(a0),d0
     59a:	2079 004d 2c24 	movea.l 4d2c24 <custom>,a0
     5a0:	2140 0080      	move.l d0,128(a0)
	custom->cop2lc=(ULONG)GfxBase->LOFlist;
     5a4:	2079 004d 2c2c 	movea.l 4d2c2c <GfxBase>,a0
     5aa:	2028 0032      	move.l 50(a0),d0
     5ae:	2079 004d 2c24 	movea.l 4d2c24 <custom>,a0
     5b4:	2140 0084      	move.l d0,132(a0)
	custom->copjmp1=0x7fff; //start coppper
     5b8:	2079 004d 2c24 	movea.l 4d2c24 <custom>,a0
     5be:	317c 7fff 0088 	move.w #32767,136(a0)

	/*Restore all interrupts and DMA settings. */
	custom->intena=SystemInts|0x8000;
     5c4:	3039 004d 2c32 	move.w 4d2c32 <SystemInts>,d0
     5ca:	2079 004d 2c24 	movea.l 4d2c24 <custom>,a0
     5d0:	0040 8000      	ori.w #-32768,d0
     5d4:	3140 009a      	move.w d0,154(a0)
	custom->dmacon=SystemDMA|0x8000;
     5d8:	3039 004d 2c34 	move.w 4d2c34 <SystemDMA>,d0
     5de:	2079 004d 2c24 	movea.l 4d2c24 <custom>,a0
     5e4:	0040 8000      	ori.w #-32768,d0
     5e8:	3140 0096      	move.w d0,150(a0)
	custom->adkcon=SystemADKCON|0x8000;
     5ec:	3039 004d 2c36 	move.w 4d2c36 <SystemADKCON>,d0
     5f2:	2079 004d 2c24 	movea.l 4d2c24 <custom>,a0
     5f8:	0040 8000      	ori.w #-32768,d0
     5fc:	3140 009e      	move.w d0,158(a0)
	WaitTOF();
	WaitBlit();	*()
	//DisownBlitter();
	//Enable();
	//Permit();*/
}
     600:	4e75           	rts

00000602 <interruptHandler.lto_priv.1>:
	*copListCurrent++=offsetof(struct Custom, color[index]);
	*copListCurrent++=color;
	return copListCurrent;
}

static __attribute__((interrupt)) void interruptHandler() {
     602:	2f08           	move.l a0,-(sp)
     604:	2f00           	move.l d0,-(sp)
	custom->intreq=(1<<INTB_VERTB); custom->intreq=(1<<INTB_VERTB); //reset vbl req. twice for a4000 bug.
     606:	2079 004d 2c24 	movea.l 4d2c24 <custom>,a0
     60c:	317c 0020 009c 	move.w #32,156(a0)
     612:	2079 004d 2c24 	movea.l 4d2c24 <custom>,a0
     618:	317c 0020 009c 	move.w #32,156(a0)
	// DEMO - increment frameCounter
	frameCounter++;
     61e:	3039 004d 2c44 	move.w 4d2c44 <frameCounter>,d0
     624:	5240           	addq.w #1,d0
     626:	33c0 004d 2c44 	move.w d0,4d2c44 <frameCounter>
}
     62c:	201f           	move.l (sp)+,d0
     62e:	205f           	movea.l (sp)+,a0
     630:	4e73           	rte

00000632 <main>:
	*copListEnd++ = offsetof(struct Custom, diwstop);
	*copListEnd++ = (xstop-256)+((ystop-256)<<8);
	return copListEnd;
}

int main() {
     632:	4fef ffbc      	lea -68(sp),sp
     636:	48e7 3002      	movem.l d2-d3/a6,-(sp)
	ULONG tmp = 4;
     63a:	7004           	moveq #4,d0
     63c:	2f40 0048      	move.l d0,72(sp)
    SysBase = *((struct ExecBase**)tmp);
     640:	206f 0048      	movea.l 72(sp),a0
     644:	2010           	move.l (a0),d0
     646:	23c0 004d 2c20 	move.l d0,4d2c20 <SysBase>
	hw = (struct Custom*)0xdff000;
     64c:	23fc 00df f000 	move.l #14675968,4d2c1c <hw>
     652:	004d 2c1c 

	SysBase = *((struct ExecBase**)4UL);
     656:	307c 0004      	movea.w #4,a0
     65a:	2010           	move.l (a0),d0
     65c:	23c0 004d 2c20 	move.l d0,4d2c20 <SysBase>
	custom = (struct Custom*)0xdff000;
     662:	23fc 00df f000 	move.l #14675968,4d2c24 <custom>
     668:	004d 2c24 

	// We will use the graphics library only to locate and restore the system copper list once we are through.
	GfxBase = (struct GfxBase *)OpenLibrary((CONST_STRPTR)"graphics.library",0);
     66c:	2f7c 0000 75b6 	move.l #30134,68(sp)
     672:	0044 
     674:	42af 0040      	clr.l 64(sp)
     678:	2039 004d 2c20 	move.l 4d2c20 <SysBase>,d0
     67e:	2c40           	movea.l d0,a6
     680:	226f 0044      	movea.l 68(sp),a1
     684:	202f 0040      	move.l 64(sp),d0
     688:	4eae fdd8      	jsr -552(a6)
     68c:	2f40 003c      	move.l d0,60(sp)
     690:	202f 003c      	move.l 60(sp),d0
     694:	23c0 004d 2c2c 	move.l d0,4d2c2c <GfxBase>
	if (!GfxBase)
     69a:	2039 004d 2c2c 	move.l 4d2c2c <GfxBase>,d0
     6a0:	6614           	bne.s 6b6 <main+0x84>
		Exit(0);
     6a2:	42af 0038      	clr.l 56(sp)
     6a6:	2039 004d 2c28 	move.l 4d2c28 <DOSBase>,d0
     6ac:	2c40           	movea.l d0,a6
     6ae:	222f 0038      	move.l 56(sp),d1
     6b2:	4eae ff70      	jsr -144(a6)

	// used for printing
	DOSBase = (struct DosLibrary*)OpenLibrary((CONST_STRPTR)"dos.library", 0);
     6b6:	2f7c 0000 75c7 	move.l #30151,52(sp)
     6bc:	0034 
     6be:	42af 0030      	clr.l 48(sp)
     6c2:	2039 004d 2c20 	move.l 4d2c20 <SysBase>,d0
     6c8:	2c40           	movea.l d0,a6
     6ca:	226f 0034      	movea.l 52(sp),a1
     6ce:	202f 0030      	move.l 48(sp),d0
     6d2:	4eae fdd8      	jsr -552(a6)
     6d6:	2f40 002c      	move.l d0,44(sp)
     6da:	202f 002c      	move.l 44(sp),d0
     6de:	23c0 004d 2c28 	move.l d0,4d2c28 <DOSBase>
	if (!DOSBase)
     6e4:	2039 004d 2c28 	move.l 4d2c28 <DOSBase>,d0
     6ea:	6614           	bne.s 700 <main+0xce>
		Exit(0);
     6ec:	42af 0028      	clr.l 40(sp)
     6f0:	2039 004d 2c28 	move.l 4d2c28 <DOSBase>,d0
     6f6:	2c40           	movea.l d0,a6
     6f8:	222f 0028      	move.l 40(sp),d1
     6fc:	4eae ff70      	jsr -144(a6)

#ifdef __cplusplus
	KPrintF("Hello debugger from Amiga: %ld!\n", staticClass.i);
#else
	KPrintF("Hello debugger from Amiga!\n");
     700:	4879 0000 75d3 	pea 75d3 <c2p1x1_8_c5_gen_pixels+0x21>
     706:	4eba 67a0      	jsr 6ea8 <KPrintF>(pc)
     70a:	588f           	addq.l #4,sp
#endif
	Write(Output(), (APTR)"Hello console!\n", 15);
     70c:	2039 004d 2c28 	move.l 4d2c28 <DOSBase>,d0
     712:	2c40           	movea.l d0,a6
     714:	4eae ffc4      	jsr -60(a6)
     718:	2f40 0024      	move.l d0,36(sp)
     71c:	202f 0024      	move.l 36(sp),d0
     720:	2f40 0020      	move.l d0,32(sp)
     724:	2f7c 0000 75ef 	move.l #30191,28(sp)
     72a:	001c 
     72c:	700f           	moveq #15,d0
     72e:	2f40 0018      	move.l d0,24(sp)
     732:	2039 004d 2c28 	move.l 4d2c28 <DOSBase>,d0
     738:	2c40           	movea.l d0,a6
     73a:	222f 0020      	move.l 32(sp),d1
     73e:	242f 001c      	move.l 28(sp),d2
     742:	262f 0018      	move.l 24(sp),d3
     746:	4eae ffd0      	jsr -48(a6)
     74a:	2f40 0014      	move.l d0,20(sp)
	Delay(50);
     74e:	7032           	moveq #50,d0
     750:	2f40 0010      	move.l d0,16(sp)
     754:	2039 004d 2c28 	move.l 4d2c28 <DOSBase>,d0
     75a:	2c40           	movea.l d0,a6
     75c:	222f 0010      	move.l 16(sp),d1
     760:	4eae ff3a      	jsr -198(a6)

	//warpmode(1);
	// TODO: precalc stuff here
	//warpmode(0);

	TakeSystem();
     764:	4eba fe14      	jsr 57a <TakeSystem>(pc)


	WaitVbl();
     768:	4eba fdc6      	jsr 530 <WaitVbl>(pc)
	
    hw->dmacon = 0b1000011111111111;
     76c:	2079 004d 2c1c 	movea.l 4d2c1c <hw>,a0
     772:	317c 87ff 0096 	move.w #-30721,150(a0)
	//c2p();
  	Zoom_InitRun();
     778:	4eba 0906      	jsr 1080 <Zoom_InitRun>(pc)

	for(int i=0;i<20000;i++) {
     77c:	42af 004c      	clr.l 76(sp)
     780:	6008           	bra.s 78a <main+0x158>
		WaitVbl();
     782:	4eba fdac      	jsr 530 <WaitVbl>(pc)
	for(int i=0;i<20000;i++) {
     786:	52af 004c      	addq.l #1,76(sp)
     78a:	0caf 0000 4e1f 	cmpi.l #19999,76(sp)
     790:	004c 
     792:	6fee           	ble.s 782 <main+0x150>
	}
	ULONG *bp = 0x100;
     794:	2f7c 0000 0100 	move.l #256,12(sp)
     79a:	000c 
  	*bp = 0;
     79c:	206f 000c      	movea.l 12(sp),a0
     7a0:	4290           	clr.l (a0)
	Zoom_Dealloc();
     7a2:	4eba 0b74      	jsr 1318 <Zoom_Dealloc>(pc)
	*bp = 0;
     7a6:	206f 000c      	movea.l 12(sp),a0
     7aa:	4290           	clr.l (a0)
     7ac:	7000           	moveq #0,d0
	// END
	FreeSystem();

	/*CloseLibrary((struct Library*)DOSBase);
	CloseLibrary((struct Library*)GfxBase);*/
}
     7ae:	4cdf 400c      	movem.l (sp)+,d2-d3/a6
     7b2:	4fef 0044      	lea 68(sp),sp
     7b6:	4e75           	rts

000007b8 <SwScrollerTest>:

char *sw_text = "!               ";
UWORD sw_testfont[] = { 0xffff, 0x0000, 0xffff, 0x0000, 0xffff, 0x0000, 0xffff,
           0x0000, 0xff00,0x00ff,0xff00, 0x00ff,0xff00,0x00ff, 0xff00, 0x00ff };

void SwScrollerTest() {
     7b8:	4fef ff98      	lea -104(sp),sp
     7bc:	48e7 3002      	movem.l d2-d3/a6,-(sp)
  PrepareDisplaySW();
     7c0:	4eba 0218      	jsr 9da <PrepareDisplaySW>(pc)
  if( TestCopperlistBatch(  Copperlist1, 0, ClsSprites, 16) == 0)
     7c4:	2039 004d 2c04 	move.l 4d2c04 <Copperlist1>,d0
     7ca:	4878 0010      	pea 10 <_start+0x10>
     7ce:	4879 0000 a68c 	pea a68c <ClsSprites>
     7d4:	42a7           	clr.l -(sp)
     7d6:	2f00           	move.l d0,-(sp)
     7d8:	4eba 1ff0      	jsr 27ca <TestCopperlistBatch>(pc)
     7dc:	4fef 0010      	lea 16(sp),sp
     7e0:	4a80           	tst.l d0
     7e2:	6642           	bne.s 826 <SwScrollerTest+0x6e>
    Write( Output(), "Sprite section of copper starting on pos 0 messed up\n", 
     7e4:	2039 004d 2c28 	move.l 4d2c28 <DOSBase>,d0
     7ea:	2c40           	movea.l d0,a6
     7ec:	4eae ffc4      	jsr -60(a6)
     7f0:	2f40 0070      	move.l d0,112(sp)
     7f4:	202f 0070      	move.l 112(sp),d0
     7f8:	2f40 006c      	move.l d0,108(sp)
     7fc:	2f7c 0000 7610 	move.l #30224,104(sp)
     802:	0068 
     804:	702c           	moveq #44,d0
     806:	2f40 0064      	move.l d0,100(sp)
     80a:	2039 004d 2c28 	move.l 4d2c28 <DOSBase>,d0
     810:	2c40           	movea.l d0,a6
     812:	222f 006c      	move.l 108(sp),d1
     816:	242f 0068      	move.l 104(sp),d2
     81a:	262f 0064      	move.l 100(sp),d3
     81e:	4eae ffd0      	jsr -48(a6)
     822:	2f40 0060      	move.l d0,96(sp)
                                                                            44);
  if(  TestCopperlistBatch(  Copperlist1, 16, ClScreen, 12) == 0)
     826:	2039 004d 2c04 	move.l 4d2c04 <Copperlist1>,d0
     82c:	4878 000c      	pea c <_start+0xc>
     830:	4879 0000 a6cc 	pea a6cc <ClScreen>
     836:	4878 0010      	pea 10 <_start+0x10>
     83a:	2f00           	move.l d0,-(sp)
     83c:	4eba 1f8c      	jsr 27ca <TestCopperlistBatch>(pc)
     840:	4fef 0010      	lea 16(sp),sp
     844:	4a80           	tst.l d0
     846:	6642           	bne.s 88a <SwScrollerTest+0xd2>
    Write( Output(), "Screen section of copper starting on pos 16 messed up\n",
     848:	2039 004d 2c28 	move.l 4d2c28 <DOSBase>,d0
     84e:	2c40           	movea.l d0,a6
     850:	4eae ffc4      	jsr -60(a6)
     854:	2f40 005c      	move.l d0,92(sp)
     858:	202f 005c      	move.l 92(sp),d0
     85c:	2f40 0058      	move.l d0,88(sp)
     860:	2f7c 0000 7646 	move.l #30278,84(sp)
     866:	0054 
     868:	7036           	moveq #54,d0
     86a:	2f40 0050      	move.l d0,80(sp)
     86e:	2039 004d 2c28 	move.l 4d2c28 <DOSBase>,d0
     874:	2c40           	movea.l d0,a6
     876:	222f 0058      	move.l 88(sp),d1
     87a:	242f 0054      	move.l 84(sp),d2
     87e:	262f 0050      	move.l 80(sp),d3
     882:	4eae ffd0      	jsr -48(a6)
     886:	2f40 004c      	move.l d0,76(sp)
                                                                            54);
  
   if(  TestCopperlistBatch(  Copperlist1, 30, ClColor, 2) == 0)
     88a:	2039 004d 2c04 	move.l 4d2c04 <Copperlist1>,d0
     890:	4878 0002      	pea 2 <_start+0x2>
     894:	4879 0000 a60c 	pea a60c <ClColor>
     89a:	4878 001e      	pea 1e <_start+0x1e>
     89e:	2f00           	move.l d0,-(sp)
     8a0:	4eba 1f28      	jsr 27ca <TestCopperlistBatch>(pc)
     8a4:	4fef 0010      	lea 16(sp),sp
     8a8:	4a80           	tst.l d0
     8aa:	6642           	bne.s 8ee <SwScrollerTest+0x136>
    Write(Output(), "Copperlist: Colorpart messed up.\n", 33);
     8ac:	2039 004d 2c28 	move.l 4d2c28 <DOSBase>,d0
     8b2:	2c40           	movea.l d0,a6
     8b4:	4eae ffc4      	jsr -60(a6)
     8b8:	2f40 0048      	move.l d0,72(sp)
     8bc:	202f 0048      	move.l 72(sp),d0
     8c0:	2f40 0044      	move.l d0,68(sp)
     8c4:	2f7c 0000 767d 	move.l #30333,64(sp)
     8ca:	0040 
     8cc:	7021           	moveq #33,d0
     8ce:	2f40 003c      	move.l d0,60(sp)
     8d2:	2039 004d 2c28 	move.l 4d2c28 <DOSBase>,d0
     8d8:	2c40           	movea.l d0,a6
     8da:	222f 0044      	move.l 68(sp),d1
     8de:	242f 0040      	move.l 64(sp),d2
     8e2:	262f 003c      	move.l 60(sp),d3
     8e6:	4eae ffd0      	jsr -48(a6)
     8ea:	2f40 0038      	move.l d0,56(sp)

  if( TestCopperlistPos( Copperlist1, 32, 0xfffffffe) == 0)
     8ee:	2039 004d 2c04 	move.l 4d2c04 <Copperlist1>,d0
     8f4:	4878 fffe      	pea fffffffe <_end+0xffb2d38a>
     8f8:	4878 0020      	pea 20 <_start+0x20>
     8fc:	2f00           	move.l d0,-(sp)
     8fe:	4eba 1f08      	jsr 2808 <TestCopperlistPos>(pc)
     902:	4fef 000c      	lea 12(sp),sp
     906:	4a80           	tst.l d0
     908:	6642           	bne.s 94c <SwScrollerTest+0x194>
    Write( Output(), "Copperlist End not correctly set.\n", 34);
     90a:	2039 004d 2c28 	move.l 4d2c28 <DOSBase>,d0
     910:	2c40           	movea.l d0,a6
     912:	4eae ffc4      	jsr -60(a6)
     916:	2f40 0034      	move.l d0,52(sp)
     91a:	202f 0034      	move.l 52(sp),d0
     91e:	2f40 0030      	move.l d0,48(sp)
     922:	2f7c 0000 769f 	move.l #30367,44(sp)
     928:	002c 
     92a:	7022           	moveq #34,d0
     92c:	2f40 0028      	move.l d0,40(sp)
     930:	2039 004d 2c28 	move.l 4d2c28 <DOSBase>,d0
     936:	2c40           	movea.l d0,a6
     938:	222f 0030      	move.l 48(sp),d1
     93c:	242f 002c      	move.l 44(sp),d2
     940:	262f 0028      	move.l 40(sp),d3
     944:	4eae ffd0      	jsr -48(a6)
     948:	2f40 0024      	move.l d0,36(sp)

  WriteFont(  sw_testfont, DrawBuffer, sw_text);
     94c:	2239 0000 b848 	move.l b848 <sw_text>,d1
     952:	2039 004d 2c0c 	move.l 4d2c0c <DrawBuffer>,d0
     958:	2f01           	move.l d1,-(sp)
     95a:	2f00           	move.l d0,-(sp)
     95c:	4879 0000 b84c 	pea b84c <sw_testfont>
     962:	4eba 0380      	jsr ce4 <WriteFont>(pc)
     966:	4fef 000c      	lea 12(sp),sp

  UWORD *tstpointer = (UWORD *)DrawBuffer;
     96a:	2f79 004d 2c0c 	move.l 4d2c0c <DrawBuffer>,32(sp)
     970:	0020 
  if( *tstpointer != 0xff00)
     972:	206f 0020      	movea.l 32(sp),a0
     976:	3010           	move.w (a0),d0
     978:	0c40 ff00      	cmpi.w #-256,d0
     97c:	6742           	beq.s 9c0 <SwScrollerTest+0x208>
    Write( Output(), "SwScrollerTest: Test Font not correctly Written.\n", 49);
     97e:	2039 004d 2c28 	move.l 4d2c28 <DOSBase>,d0
     984:	2c40           	movea.l d0,a6
     986:	4eae ffc4      	jsr -60(a6)
     98a:	2f40 001c      	move.l d0,28(sp)
     98e:	202f 001c      	move.l 28(sp),d0
     992:	2f40 0018      	move.l d0,24(sp)
     996:	2f7c 0000 76c2 	move.l #30402,20(sp)
     99c:	0014 
     99e:	7031           	moveq #49,d0
     9a0:	2f40 0010      	move.l d0,16(sp)
     9a4:	2039 004d 2c28 	move.l 4d2c28 <DOSBase>,d0
     9aa:	2c40           	movea.l d0,a6
     9ac:	222f 0018      	move.l 24(sp),d1
     9b0:	242f 0014      	move.l 20(sp),d2
     9b4:	262f 0010      	move.l 16(sp),d3
     9b8:	4eae ffd0      	jsr -48(a6)
     9bc:	2f40 000c      	move.l d0,12(sp)

  FreeDisplay( SWCPSIZE, SWBPLSIZE);
     9c0:	2f3c 0000 c800 	move.l #51200,-(sp)
     9c6:	4878 0084      	pea 84 <_start+0x84>
     9ca:	4eba f714      	jsr e0 <FreeDisplay>(pc)
     9ce:	508f           	addq.l #8,sp
     9d0:	4cdf 400c      	movem.l (sp)+,d2-d3/a6
     9d4:	4fef 0068      	lea 104(sp),sp
     9d8:	4e75           	rts

000009da <PrepareDisplaySW>:
 #include "swscroller.h"
 #include "utils.h"
 
 INCBIN(swfont, "raw/ruby16_8_1.raw");

 int PrepareDisplaySW() {
     9da:	4fef ffb8      	lea -72(sp),sp
     9de:	48e7 3002      	movem.l d2-d3/a6,-(sp)

  Copperlist1 = ClbuildSW();
     9e2:	4eba 017e      	jsr b62 <ClbuildSW>(pc)
     9e6:	23c0 004d 2c04 	move.l d0,4d2c04 <Copperlist1>
  Copperlist2 = ClbuildSW();
     9ec:	4eba 0174      	jsr b62 <ClbuildSW>(pc)
     9f0:	23c0 004d 2c08 	move.l d0,4d2c08 <Copperlist2>
  Bitplane1 = AllocMem(SWBPLSIZE, MEMF_CHIP);
     9f6:	2f7c 0000 c800 	move.l #51200,80(sp)
     9fc:	0050 
     9fe:	7002           	moveq #2,d0
     a00:	2f40 004c      	move.l d0,76(sp)
     a04:	2039 004d 2c20 	move.l 4d2c20 <SysBase>,d0
     a0a:	2c40           	movea.l d0,a6
     a0c:	202f 0050      	move.l 80(sp),d0
     a10:	222f 004c      	move.l 76(sp),d1
     a14:	4eae ff3a      	jsr -198(a6)
     a18:	2f40 0048      	move.l d0,72(sp)
     a1c:	202f 0048      	move.l 72(sp),d0
     a20:	23c0 004d 2bfc 	move.l d0,4d2bfc <Bitplane1>
  if(Bitplane1 == 0) {
     a26:	2039 004d 2bfc 	move.l 4d2bfc <Bitplane1>,d0
     a2c:	6658           	bne.s a86 <PrepareDisplaySW+0xac>
    Write(Output(), "Cannot allocate Memory for Bitplane1.\n",38);
     a2e:	2039 004d 2c28 	move.l 4d2c28 <DOSBase>,d0
     a34:	2c40           	movea.l d0,a6
     a36:	4eae ffc4      	jsr -60(a6)
     a3a:	2f40 0044      	move.l d0,68(sp)
     a3e:	202f 0044      	move.l 68(sp),d0
     a42:	2f40 0040      	move.l d0,64(sp)
     a46:	2f7c 0000 7ca5 	move.l #31909,60(sp)
     a4c:	003c 
     a4e:	7026           	moveq #38,d0
     a50:	2f40 0038      	move.l d0,56(sp)
     a54:	2039 004d 2c28 	move.l 4d2c28 <DOSBase>,d0
     a5a:	2c40           	movea.l d0,a6
     a5c:	222f 0040      	move.l 64(sp),d1
     a60:	242f 003c      	move.l 60(sp),d2
     a64:	262f 0038      	move.l 56(sp),d3
     a68:	4eae ffd0      	jsr -48(a6)
     a6c:	2f40 0034      	move.l d0,52(sp)
    Exit(1);
     a70:	7001           	moveq #1,d0
     a72:	2f40 0030      	move.l d0,48(sp)
     a76:	2039 004d 2c28 	move.l 4d2c28 <DOSBase>,d0
     a7c:	2c40           	movea.l d0,a6
     a7e:	222f 0030      	move.l 48(sp),d1
     a82:	4eae ff70      	jsr -144(a6)
  }
  DrawBuffer = Bitplane1;
     a86:	2039 004d 2bfc 	move.l 4d2bfc <Bitplane1>,d0
     a8c:	23c0 004d 2c0c 	move.l d0,4d2c0c <DrawBuffer>
  DrawCopper = Copperlist1;
     a92:	2039 004d 2c04 	move.l 4d2c04 <Copperlist1>,d0
     a98:	23c0 004d 2c14 	move.l d0,4d2c14 <DrawCopper>
  Bitplane2 = AllocMem(SWBPLSIZE, MEMF_CHIP);
     a9e:	2f7c 0000 c800 	move.l #51200,44(sp)
     aa4:	002c 
     aa6:	7002           	moveq #2,d0
     aa8:	2f40 0028      	move.l d0,40(sp)
     aac:	2039 004d 2c20 	move.l 4d2c20 <SysBase>,d0
     ab2:	2c40           	movea.l d0,a6
     ab4:	202f 002c      	move.l 44(sp),d0
     ab8:	222f 0028      	move.l 40(sp),d1
     abc:	4eae ff3a      	jsr -198(a6)
     ac0:	2f40 0024      	move.l d0,36(sp)
     ac4:	202f 0024      	move.l 36(sp),d0
     ac8:	23c0 004d 2c00 	move.l d0,4d2c00 <Bitplane2>
  if(Bitplane2 == 0) {
     ace:	2039 004d 2c00 	move.l 4d2c00 <Bitplane2>,d0
     ad4:	6658           	bne.s b2e <PrepareDisplaySW+0x154>
    Write(Output(), "Cannot allocate Memory for Bitplane2.\n", 38);
     ad6:	2039 004d 2c28 	move.l 4d2c28 <DOSBase>,d0
     adc:	2c40           	movea.l d0,a6
     ade:	4eae ffc4      	jsr -60(a6)
     ae2:	2f40 0020      	move.l d0,32(sp)
     ae6:	202f 0020      	move.l 32(sp),d0
     aea:	2f40 001c      	move.l d0,28(sp)
     aee:	2f7c 0000 7ccc 	move.l #31948,24(sp)
     af4:	0018 
     af6:	7026           	moveq #38,d0
     af8:	2f40 0014      	move.l d0,20(sp)
     afc:	2039 004d 2c28 	move.l 4d2c28 <DOSBase>,d0
     b02:	2c40           	movea.l d0,a6
     b04:	222f 001c      	move.l 28(sp),d1
     b08:	242f 0018      	move.l 24(sp),d2
     b0c:	262f 0014      	move.l 20(sp),d3
     b10:	4eae ffd0      	jsr -48(a6)
     b14:	2f40 0010      	move.l d0,16(sp)
    Exit(1);
     b18:	7001           	moveq #1,d0
     b1a:	2f40 000c      	move.l d0,12(sp)
     b1e:	2039 004d 2c28 	move.l 4d2c28 <DOSBase>,d0
     b24:	2c40           	movea.l d0,a6
     b26:	222f 000c      	move.l 12(sp),d1
     b2a:	4eae ff70      	jsr -144(a6)
  }
  ViewBuffer = Bitplane2;
     b2e:	2039 004d 2c00 	move.l 4d2c00 <Bitplane2>,d0
     b34:	23c0 004d 2c10 	move.l d0,4d2c10 <ViewBuffer>
  ViewCopper = Copperlist2;
     b3a:	2039 004d 2c08 	move.l 4d2c08 <Copperlist2>,d0
     b40:	23c0 004d 2c18 	move.l d0,4d2c18 <ViewCopper>
  SwapCl();
     b46:	4eba f658      	jsr 1a0 <SwapCl>(pc)
  SetBplPointers();
     b4a:	4eba f5f6      	jsr 142 <SetBplPointers>(pc)
  SwapCl();
     b4e:	4eba f650      	jsr 1a0 <SwapCl>(pc)
  SetBplPointers();
     b52:	4eba f5ee      	jsr 142 <SetBplPointers>(pc)
  return 0;
     b56:	7000           	moveq #0,d0
}
     b58:	4cdf 400c      	movem.l (sp)+,d2-d3/a6
     b5c:	4fef 0048      	lea 72(sp),sp
     b60:	4e75           	rts

00000b62 <ClbuildSW>:

ULONG * ClbuildSW() {
     b62:	4fef ffc4      	lea -60(sp),sp
     b66:	48e7 3002      	movem.l d2-d3/a6,-(sp)
  
  ULONG *retval = AllocMem(  SWCPSIZE, MEMF_CHIP);
     b6a:	2f7c 0000 0084 	move.l #132,48(sp)
     b70:	0030 
     b72:	7002           	moveq #2,d0
     b74:	2f40 002c      	move.l d0,44(sp)
     b78:	2039 004d 2c20 	move.l 4d2c20 <SysBase>,d0
     b7e:	2c40           	movea.l d0,a6
     b80:	202f 0030      	move.l 48(sp),d0
     b84:	222f 002c      	move.l 44(sp),d1
     b88:	4eae ff3a      	jsr -198(a6)
     b8c:	2f40 0028      	move.l d0,40(sp)
     b90:	202f 0028      	move.l 40(sp),d0
     b94:	2f40 0024      	move.l d0,36(sp)
  
  if( retval == 0) {
     b98:	6658           	bne.s bf2 <ClbuildSW+0x90>
    Write( Output(), "Allocation of Ram for Copper failed.\n", 40);
     b9a:	2039 004d 2c28 	move.l 4d2c28 <DOSBase>,d0
     ba0:	2c40           	movea.l d0,a6
     ba2:	4eae ffc4      	jsr -60(a6)
     ba6:	2f40 0020      	move.l d0,32(sp)
     baa:	202f 0020      	move.l 32(sp),d0
     bae:	2f40 001c      	move.l d0,28(sp)
     bb2:	2f7c 0000 7cf3 	move.l #31987,24(sp)
     bb8:	0018 
     bba:	7228           	moveq #40,d1
     bbc:	2f41 0014      	move.l d1,20(sp)
     bc0:	2039 004d 2c28 	move.l 4d2c28 <DOSBase>,d0
     bc6:	2c40           	movea.l d0,a6
     bc8:	222f 001c      	move.l 28(sp),d1
     bcc:	242f 0018      	move.l 24(sp),d2
     bd0:	262f 0014      	move.l 20(sp),d3
     bd4:	4eae ffd0      	jsr -48(a6)
     bd8:	2f40 0010      	move.l d0,16(sp)
    Exit(1);
     bdc:	7401           	moveq #1,d2
     bde:	2f42 000c      	move.l d2,12(sp)
     be2:	2039 004d 2c28 	move.l 4d2c28 <DOSBase>,d0
     be8:	2c40           	movea.l d0,a6
     bea:	222f 000c      	move.l 12(sp),d1
     bee:	4eae ff70      	jsr -144(a6)
  }
  ULONG *cl = retval;
     bf2:	2f6f 0024 0044 	move.l 36(sp),68(sp)
  //clinstruction = DrawCopper;
  ULONG *clpartinstruction;
  clpartinstruction = ClsSprites;
     bf8:	2f7c 0000 a68c 	move.l #42636,64(sp)
     bfe:	0040 
  for(int i=0; i<16;i++)
     c00:	42af 003c      	clr.l 60(sp)
     c04:	6024           	bra.s c2a <ClbuildSW+0xc8>
    *cl++ = *clpartinstruction++;
     c06:	222f 0040      	move.l 64(sp),d1
     c0a:	2001           	move.l d1,d0
     c0c:	5880           	addq.l #4,d0
     c0e:	2f40 0040      	move.l d0,64(sp)
     c12:	202f 0044      	move.l 68(sp),d0
     c16:	2400           	move.l d0,d2
     c18:	5882           	addq.l #4,d2
     c1a:	2f42 0044      	move.l d2,68(sp)
     c1e:	2041           	movea.l d1,a0
     c20:	2210           	move.l (a0),d1
     c22:	2040           	movea.l d0,a0
     c24:	2081           	move.l d1,(a0)
  for(int i=0; i<16;i++)
     c26:	52af 003c      	addq.l #1,60(sp)
     c2a:	700f           	moveq #15,d0
     c2c:	b0af 003c      	cmp.l 60(sp),d0
     c30:	6cd4           	bge.s c06 <ClbuildSW+0xa4>
  clpartinstruction = ClScreen;
     c32:	2f7c 0000 a6cc 	move.l #42700,64(sp)
     c38:	0040 
  for(int i=0; i<12;i++)
     c3a:	42af 0038      	clr.l 56(sp)
     c3e:	6024           	bra.s c64 <ClbuildSW+0x102>
    *cl++ = *clpartinstruction++;
     c40:	222f 0040      	move.l 64(sp),d1
     c44:	2401           	move.l d1,d2
     c46:	5882           	addq.l #4,d2
     c48:	2f42 0040      	move.l d2,64(sp)
     c4c:	202f 0044      	move.l 68(sp),d0
     c50:	2400           	move.l d0,d2
     c52:	5882           	addq.l #4,d2
     c54:	2f42 0044      	move.l d2,68(sp)
     c58:	2041           	movea.l d1,a0
     c5a:	2210           	move.l (a0),d1
     c5c:	2040           	movea.l d0,a0
     c5e:	2081           	move.l d1,(a0)
  for(int i=0; i<12;i++)
     c60:	52af 0038      	addq.l #1,56(sp)
     c64:	700b           	moveq #11,d0
     c66:	b0af 0038      	cmp.l 56(sp),d0
     c6a:	6cd4           	bge.s c40 <ClbuildSW+0xde>
  //cl[CopBpl1High] = (long) cl + 2;
  *cl++ = 0x00e00000;
     c6c:	202f 0044      	move.l 68(sp),d0
     c70:	2200           	move.l d0,d1
     c72:	5881           	addq.l #4,d1
     c74:	2f41 0044      	move.l d1,68(sp)
     c78:	2040           	movea.l d0,a0
     c7a:	20bc 00e0 0000 	move.l #14680064,(a0)
  //cl[CopBpl1Low] = (long) cl + 2;
  *cl++ = 0x00e20000;
     c80:	202f 0044      	move.l 68(sp),d0
     c84:	2200           	move.l d0,d1
     c86:	5881           	addq.l #4,d1
     c88:	2f41 0044      	move.l d1,68(sp)
     c8c:	2040           	movea.l d0,a0
     c8e:	20bc 00e2 0000 	move.l #14811136,(a0)

  clpartinstruction = ClColor;
     c94:	2f7c 0000 a60c 	move.l #42508,64(sp)
     c9a:	0040 
  for(int i=0; i<2;i++)
     c9c:	42af 0034      	clr.l 52(sp)
     ca0:	6024           	bra.s cc6 <ClbuildSW+0x164>
    *cl++ = *clpartinstruction++;
     ca2:	222f 0040      	move.l 64(sp),d1
     ca6:	2001           	move.l d1,d0
     ca8:	5880           	addq.l #4,d0
     caa:	2f40 0040      	move.l d0,64(sp)
     cae:	202f 0044      	move.l 68(sp),d0
     cb2:	2400           	move.l d0,d2
     cb4:	5882           	addq.l #4,d2
     cb6:	2f42 0044      	move.l d2,68(sp)
     cba:	2041           	movea.l d1,a0
     cbc:	2210           	move.l (a0),d1
     cbe:	2040           	movea.l d0,a0
     cc0:	2081           	move.l d1,(a0)
  for(int i=0; i<2;i++)
     cc2:	52af 0034      	addq.l #1,52(sp)
     cc6:	7001           	moveq #1,d0
     cc8:	b0af 0034      	cmp.l 52(sp),d0
     ccc:	6cd4           	bge.s ca2 <ClbuildSW+0x140>

  *cl = 0xfffffffe;
     cce:	206f 0044      	movea.l 68(sp),a0
     cd2:	72fe           	moveq #-2,d1
     cd4:	2081           	move.l d1,(a0)

  return retval;
     cd6:	202f 0024      	move.l 36(sp),d0
}
     cda:	4cdf 400c      	movem.l (sp)+,d2-d3/a6
     cde:	4fef 003c      	lea 60(sp),sp
     ce2:	4e75           	rts

00000ce4 <WriteFont>:

void WriteFont( UWORD *font, UWORD *Destination, char *text) {
     ce4:	4fef fff0      	lea -16(sp),sp
  UWORD *bmpptr = Destination;
     ce8:	2f6f 0018 000c 	move.l 24(sp),12(sp)
  UWORD *fntptr = font;
     cee:	2f6f 0014 0008 	move.l 20(sp),8(sp)

  char charpos = *text;
     cf4:	206f 001c      	movea.l 28(sp),a0
     cf8:	1f50 0003      	move.b (a0),3(sp)
  charpos -= 0x20;
     cfc:	102f 0003      	move.b 3(sp),d0
     d00:	0600 ffe0      	addi.b #-32,d0
     d04:	1f40 0003      	move.b d0,3(sp)
  charpos = charpos<<3;
     d08:	102f 0003      	move.b 3(sp),d0
     d0c:	4880           	ext.w d0
     d0e:	48c0           	ext.l d0
     d10:	e788           	lsl.l #3,d0
     d12:	1f40 0003      	move.b d0,3(sp)
  fntptr += charpos;
     d16:	102f 0003      	move.b 3(sp),d0
     d1a:	4880           	ext.w d0
     d1c:	3040           	movea.w d0,a0
     d1e:	2008           	move.l a0,d0
     d20:	d088           	add.l a0,d0
     d22:	d1af 0008      	add.l d0,8(sp)
  for(int i=1;i<=8;i++) {
     d26:	7001           	moveq #1,d0
     d28:	2f40 0004      	move.l d0,4(sp)
     d2c:	6020           	bra.s d4e <WriteFont+0x6a>
    *bmpptr = *fntptr++;
     d2e:	202f 0008      	move.l 8(sp),d0
     d32:	2200           	move.l d0,d1
     d34:	5481           	addq.l #2,d1
     d36:	2f41 0008      	move.l d1,8(sp)
     d3a:	2040           	movea.l d0,a0
     d3c:	3010           	move.w (a0),d0
     d3e:	206f 000c      	movea.l 12(sp),a0
     d42:	3080           	move.w d0,(a0)
    bmpptr += 40;
     d44:	7050           	moveq #80,d0
     d46:	d1af 000c      	add.l d0,12(sp)
  for(int i=1;i<=8;i++) {
     d4a:	52af 0004      	addq.l #1,4(sp)
     d4e:	7208           	moveq #8,d1
     d50:	b2af 0004      	cmp.l 4(sp),d1
     d54:	6cd8           	bge.s d2e <WriteFont+0x4a>
  }

}
     d56:	4fef 0010      	lea 16(sp),sp
     d5a:	4e75           	rts

00000d5c <Zoom_VblankHandler>:
  }
}*/

void Zoom_VblankHandler() {

  Zoom_Counter++;
     d5c:	3039 004d 2c5c 	move.w 4d2c5c <Zoom_Counter>,d0
     d62:	5240           	addq.w #1,d0
     d64:	33c0 004d 2c5c 	move.w d0,4d2c5c <Zoom_Counter>
  SwapCl();
     d6a:	4eba f434      	jsr 1a0 <SwapCl>(pc)
  Zoom_MouseReleased = 1;
     d6e:	33fc 0001 004d 	move.w #1,4d2c62 <Zoom_MouseReleased>
     d74:	2c62 
  if( MouseLeft())
     d76:	4eba f4ea      	jsr 262 <MouseLeft>(pc)
     d7a:	4a40           	tst.w d0
     d7c:	6708           	beq.s d86 <Zoom_VblankHandler+0x2a>
    Zoom_Mousepressed = 1;
     d7e:	33fc 0001 004d 	move.w #1,4d2c64 <Zoom_Mousepressed>
     d84:	2c64 
  if( Zoom_Mousepressed == 1 && !MouseLeft()) {
     d86:	3039 004d 2c64 	move.w 4d2c64 <Zoom_Mousepressed>,d0
     d8c:	0c40 0001      	cmpi.w #1,d0
     d90:	6616           	bne.s da8 <Zoom_VblankHandler+0x4c>
     d92:	4eba f4ce      	jsr 262 <MouseLeft>(pc)
     d96:	4a40           	tst.w d0
     d98:	660e           	bne.s da8 <Zoom_VblankHandler+0x4c>
    Zoom_MouseReleased = 1;
     d9a:	33fc 0001 004d 	move.w #1,4d2c62 <Zoom_MouseReleased>
     da0:	2c62 
    Zoom_Mousepressed = 0;
     da2:	4279 004d 2c64 	clr.w 4d2c64 <Zoom_Mousepressed>
  }
      
      Zoom_MouseReleased = 0;
     da8:	4279 004d 2c62 	clr.w 4d2c62 <Zoom_MouseReleased>
      if( Zoom_LevelOf102Zoom <= 2) {
     dae:	3039 004d 2c6a 	move.w 4d2c6a <Zoom_LevelOf102Zoom>,d0
     db4:	0c40 0002      	cmpi.w #2,d0
     db8:	6244           	bhi.s dfe <Zoom_VblankHandler+0xa2>
 
        if( Zoom_LevelOfZoom == 87)
     dba:	3039 004d 2c68 	move.w 4d2c68 <Zoom_LevelOfZoom>,d0
     dc0:	0c40 0057      	cmpi.w #87,d0
     dc4:	660a           	bne.s dd0 <Zoom_VblankHandler+0x74>
          Zoom_LevelOfZoom = 0;
     dc6:	33fc 0000 004d 	move.w #0,4d2c68 <Zoom_LevelOfZoom>
     dcc:	2c68 
     dce:	600e           	bra.s dde <Zoom_VblankHandler+0x82>
        else
          Zoom_LevelOfZoom++;
     dd0:	3039 004d 2c68 	move.w 4d2c68 <Zoom_LevelOfZoom>,d0
     dd6:	5240           	addq.w #1,d0
     dd8:	33c0 004d 2c68 	move.w d0,4d2c68 <Zoom_LevelOfZoom>
        Zoom_LevelOf102Zoom = 15;// MaxZoom102[ Zoom_LevelOfZoom] - 1;  
     dde:	33fc 000f 004d 	move.w #15,4d2c6a <Zoom_LevelOf102Zoom>
     de4:	2c6a 
        Zoom_SwapBuffers(  Zoom_LevelOfZoom);
     de6:	3039 004d 2c68 	move.w 4d2c68 <Zoom_LevelOfZoom>,d0
     dec:	3000           	move.w d0,d0
     dee:	0280 0000 ffff 	andi.l #65535,d0
     df4:	2f00           	move.l d0,-(sp)
     df6:	4eba 10bc      	jsr 1eb4 <Zoom_SwapBuffers>(pc)
     dfa:	588f           	addq.l #4,sp
     dfc:	600e           	bra.s e0c <Zoom_VblankHandler+0xb0>
      } else 
        Zoom_LevelOf102Zoom-=2;
     dfe:	3039 004d 2c6a 	move.w 4d2c6a <Zoom_LevelOf102Zoom>,d0
     e04:	5540           	subq.w #2,d0
     e06:	33c0 004d 2c6a 	move.w d0,4d2c6a <Zoom_LevelOf102Zoom>
    //}
  Zoom_Shrink102(   Zoom_LevelOf102Zoom, (UWORD *) DrawCopper);
     e0c:	2239 004d 2c14 	move.l 4d2c14 <DrawCopper>,d1
     e12:	3039 004d 2c6a 	move.w 4d2c6a <Zoom_LevelOf102Zoom>,d0
     e18:	3000           	move.w d0,d0
     e1a:	0280 0000 ffff 	andi.l #65535,d0
     e20:	2f01           	move.l d1,-(sp)
     e22:	2f00           	move.l d0,-(sp)
     e24:	4eba f5e6      	jsr 40c <Zoom_Shrink102>(pc)
     e28:	508f           	addq.l #8,sp
  Zoom_SetBplPointers(ViewBuffer, DrawCopper);
     e2a:	2239 004d 2c14 	move.l 4d2c14 <DrawCopper>,d1
     e30:	2039 004d 2c10 	move.l 4d2c10 <ViewBuffer>,d0
     e36:	2f01           	move.l d1,-(sp)
     e38:	2f00           	move.l d0,-(sp)
     e3a:	4eba 0fe0      	jsr 1e1c <Zoom_SetBplPointers>(pc)
     e3e:	508f           	addq.l #8,sp
 
}
     e40:	4e75           	rts

00000e42 <Zoom_ReverseVblankHandler>:


void Zoom_ReverseVblankHandler() {
  
  Zoom_Counter++;
     e42:	3039 004d 2c5c 	move.w 4d2c5c <Zoom_Counter>,d0
     e48:	5240           	addq.w #1,d0
     e4a:	33c0 004d 2c5c 	move.w d0,4d2c5c <Zoom_Counter>
  SwapCl();
     e50:	4eba f34e      	jsr 1a0 <SwapCl>(pc)
  Zoom_MouseReleased = 1;
     e54:	33fc 0001 004d 	move.w #1,4d2c62 <Zoom_MouseReleased>
     e5a:	2c62 
  if( MouseLeft())
     e5c:	4eba f404      	jsr 262 <MouseLeft>(pc)
     e60:	4a40           	tst.w d0
     e62:	6708           	beq.s e6c <Zoom_ReverseVblankHandler+0x2a>
    Zoom_Mousepressed = 1;
     e64:	33fc 0001 004d 	move.w #1,4d2c64 <Zoom_Mousepressed>
     e6a:	2c64 
  if( Zoom_Mousepressed == 1 && !MouseLeft()) {
     e6c:	3039 004d 2c64 	move.w 4d2c64 <Zoom_Mousepressed>,d0
     e72:	0c40 0001      	cmpi.w #1,d0
     e76:	6616           	bne.s e8e <Zoom_ReverseVblankHandler+0x4c>
     e78:	4eba f3e8      	jsr 262 <MouseLeft>(pc)
     e7c:	4a40           	tst.w d0
     e7e:	660e           	bne.s e8e <Zoom_ReverseVblankHandler+0x4c>
    Zoom_MouseReleased = 1;
     e80:	33fc 0001 004d 	move.w #1,4d2c62 <Zoom_MouseReleased>
     e86:	2c62 
    Zoom_Mousepressed = 0;
     e88:	4279 004d 2c64 	clr.w 4d2c64 <Zoom_Mousepressed>
    /*if( MouseLeft()) {
      while (MouseLeft())
      {
      }*/
      
      Zoom_MouseReleased = 0;
     e8e:	4279 004d 2c62 	clr.w 4d2c62 <Zoom_MouseReleased>
      if( Zoom_LevelOf102Zoom == 15) {
     e94:	3039 004d 2c6a 	move.w 4d2c6a <Zoom_LevelOf102Zoom>,d0
     e9a:	0c40 000f      	cmpi.w #15,d0
     e9e:	6640           	bne.s ee0 <Zoom_ReverseVblankHandler+0x9e>
 
        if( Zoom_LevelOfZoom == 0)
     ea0:	3039 004d 2c68 	move.w 4d2c68 <Zoom_LevelOfZoom>,d0
     ea6:	660a           	bne.s eb2 <Zoom_ReverseVblankHandler+0x70>
          Zoom_LevelOfZoom = 17;
     ea8:	33fc 0011 004d 	move.w #17,4d2c68 <Zoom_LevelOfZoom>
     eae:	2c68 
     eb0:	600e           	bra.s ec0 <Zoom_ReverseVblankHandler+0x7e>
        else
          Zoom_LevelOfZoom--;
     eb2:	3039 004d 2c68 	move.w 4d2c68 <Zoom_LevelOfZoom>,d0
     eb8:	5340           	subq.w #1,d0
     eba:	33c0 004d 2c68 	move.w d0,4d2c68 <Zoom_LevelOfZoom>
        Zoom_LevelOf102Zoom = 0;// MaxZoom102[ Zoom_LevelOfZoom] - 1;  
     ec0:	33fc 0000 004d 	move.w #0,4d2c6a <Zoom_LevelOf102Zoom>
     ec6:	2c6a 
        Zoom_SwapBuffers(  Zoom_LevelOfZoom);
     ec8:	3039 004d 2c68 	move.w 4d2c68 <Zoom_LevelOfZoom>,d0
     ece:	3000           	move.w d0,d0
     ed0:	0280 0000 ffff 	andi.l #65535,d0
     ed6:	2f00           	move.l d0,-(sp)
     ed8:	4eba 0fda      	jsr 1eb4 <Zoom_SwapBuffers>(pc)
     edc:	588f           	addq.l #4,sp
     ede:	600e           	bra.s eee <Zoom_ReverseVblankHandler+0xac>
      } else 
        Zoom_LevelOf102Zoom++;
     ee0:	3039 004d 2c6a 	move.w 4d2c6a <Zoom_LevelOf102Zoom>,d0
     ee6:	5240           	addq.w #1,d0
     ee8:	33c0 004d 2c6a 	move.w d0,4d2c6a <Zoom_LevelOf102Zoom>
    //}
  Zoom_Shrink102(   Zoom_LevelOf102Zoom, (UWORD *) DrawCopper);
     eee:	2239 004d 2c14 	move.l 4d2c14 <DrawCopper>,d1
     ef4:	3039 004d 2c6a 	move.w 4d2c6a <Zoom_LevelOf102Zoom>,d0
     efa:	3000           	move.w d0,d0
     efc:	0280 0000 ffff 	andi.l #65535,d0
     f02:	2f01           	move.l d1,-(sp)
     f04:	2f00           	move.l d0,-(sp)
     f06:	4eba f504      	jsr 40c <Zoom_Shrink102>(pc)
     f0a:	508f           	addq.l #8,sp
  Zoom_SetBplPointers(ViewBuffer, DrawCopper);
     f0c:	2239 004d 2c14 	move.l 4d2c14 <DrawCopper>,d1
     f12:	2039 004d 2c10 	move.l 4d2c10 <ViewBuffer>,d0
     f18:	2f01           	move.l d1,-(sp)
     f1a:	2f00           	move.l d0,-(sp)
     f1c:	4eba 0efe      	jsr 1e1c <Zoom_SetBplPointers>(pc)
     f20:	508f           	addq.l #8,sp
 
}
     f22:	4e75           	rts

00000f24 <Zoom_LoadImage>:

void Zoom_LoadImage( ULONG *destination) {  
     f24:	4fef fff4      	lea -12(sp),sp
     f28:	2f0e           	move.l a6,-(sp)
  CopyMem( rawzoom, destination, ZMBPLSIZE);
     f2a:	2f79 0000 b8a0 	move.l b8a0 <rawzoom>,12(sp)
     f30:	000c 
     f32:	2f6f 0014 0008 	move.l 20(sp),8(sp)
     f38:	2f7c 0000 df20 	move.l #57120,4(sp)
     f3e:	0004 
     f40:	2039 004d 2c20 	move.l 4d2c20 <SysBase>,d0
     f46:	2c40           	movea.l d0,a6
     f48:	206f 000c      	movea.l 12(sp),a0
     f4c:	226f 0008      	movea.l 8(sp),a1
     f50:	202f 0004      	move.l 4(sp),d0
     f54:	4eae fd90      	jsr -624(a6)
}
     f58:	2c5f           	movea.l (sp)+,a6
     f5a:	4fef 000c      	lea 12(sp),sp
     f5e:	4e75           	rts

00000f60 <Zoom_CopyWord>:

ULONG ClScreenZoom[] = { 0x01fc0000, 0x01060c00, 0x00968020, 0x008e2c81, 
         0x00902cc1, 0x00920038, 0x009400a0, 0x01020000, 0x01040000, 0x01080008, 
                                                       0x010a0000, 0x01001200 };

void  Zoom_CopyWord( UWORD *source, UWORD *destination, UWORD height) {  
     f60:	598f           	subq.l #4,sp
     f62:	202f 0010      	move.l 16(sp),d0
     f66:	3000           	move.w d0,d0
     f68:	3f40 0002      	move.w d0,2(sp)

  WaitBlt();
     f6c:	4eba f146      	jsr b4 <WaitBlt>(pc)

  hw->bltapt = (UWORD *) source;
     f70:	2079 004d 2c1c 	movea.l 4d2c1c <hw>,a0
     f76:	216f 0008 0050 	move.l 8(sp),80(a0)
  hw->bltdpt = (UWORD *) destination;
     f7c:	2079 004d 2c1c 	movea.l 4d2c1c <hw>,a0
     f82:	216f 000c 0054 	move.l 12(sp),84(a0)
  hw->bltsize = (height<<6)+2;
     f88:	302f 0002      	move.w 2(sp),d0
     f8c:	ed48           	lsl.w #6,d0
     f8e:	2079 004d 2c1c 	movea.l 4d2c1c <hw>,a0
     f94:	5440           	addq.w #2,d0
     f96:	3140 0058      	move.w d0,88(a0)

}
     f9a:	588f           	addq.l #4,sp
     f9c:	4e75           	rts

00000f9e <Zoom_ZoomBlit>:

void Zoom_ZoomBlit( UWORD *source, UWORD *destination, UWORD height) {
     f9e:	518f           	subq.l #8,sp
     fa0:	202f 0014      	move.l 20(sp),d0
     fa4:	3000           	move.w d0,d0
     fa6:	3f40 0002      	move.w d0,2(sp)

                              //FFFFFFF|TTTTFFF F = Binary 0 T=Binary 1
              //Channel D =   //BBBBBBBAAAABBB A= ChannelA , B = Channel B

  UWORD *blta = source + ZoomBlit_Increment4SrcA;
     faa:	3039 004d 2c52 	move.w 4d2c52 <ZoomBlit_Increment4SrcA>,d0
     fb0:	3000           	move.w d0,d0
     fb2:	0280 0000 ffff 	andi.l #65535,d0
     fb8:	d080           	add.l d0,d0
     fba:	222f 000c      	move.l 12(sp),d1
     fbe:	d280           	add.l d0,d1
     fc0:	2f41 0004      	move.l d1,4(sp)
  WaitBlt();
     fc4:	4eba f0ee      	jsr b4 <WaitBlt>(pc)
  1111*/
  //0000 0000 1010 1010 1010 1010
  //0000 0001 0101 0101 0101 0101
  //                     4    a
  
  hw->bltapt = blta;
     fc8:	2079 004d 2c1c 	movea.l 4d2c1c <hw>,a0
     fce:	216f 0004 0050 	move.l 4(sp),80(a0)
  hw->bltbpt = source;
     fd4:	2079 004d 2c1c 	movea.l 4d2c1c <hw>,a0
     fda:	216f 000c 004c 	move.l 12(sp),76(a0)
  hw->bltdpt = destination;
     fe0:	2079 004d 2c1c 	movea.l 4d2c1c <hw>,a0
     fe6:	216f 0010 0054 	move.l 16(sp),84(a0)
  hw->bltsize = (height<<6)+2;
     fec:	302f 0002      	move.w 2(sp),d0
     ff0:	ed48           	lsl.w #6,d0
     ff2:	2079 004d 2c1c 	movea.l 4d2c1c <hw>,a0
     ff8:	5440           	addq.w #2,d0
     ffa:	3140 0058      	move.w d0,88(a0)

}
     ffe:	508f           	addq.l #8,sp
    1000:	4e75           	rts

00001002 <Zoom_ZoomBlit2>:

void Zoom_ZoomBlit2( UWORD *src4a, UWORD *src4b, UWORD *dst, UWORD height,
                                                 UWORD bltamod, UWORD bltbmod
                                                        , UWORD numofwords) {
    1002:	518f           	subq.l #8,sp
    1004:	226f 0018      	movea.l 24(sp),a1
    1008:	206f 001c      	movea.l 28(sp),a0
    100c:	222f 0020      	move.l 32(sp),d1
    1010:	202f 0024      	move.l 36(sp),d0
    1014:	3249           	movea.w a1,a1
    1016:	3f49 0006      	move.w a1,6(sp)
    101a:	3048           	movea.w a0,a0
    101c:	3f48 0004      	move.w a0,4(sp)
    1020:	3201           	move.w d1,d1
    1022:	3f41 0002      	move.w d1,2(sp)
    1026:	3000           	move.w d0,d0
    1028:	3e80           	move.w d0,(sp)

                              //FFFFFFF|TTTTFFF F = Binary 0 T=Binary 1
              //Channel D =   //BBBBBBBAAAABBB A= ChannelA , B = Channel B
  hw->bltamod = bltamod;
    102a:	2079 004d 2c1c 	movea.l 4d2c1c <hw>,a0
    1030:	316f 0004 0064 	move.w 4(sp),100(a0)
  hw->bltbmod = bltbmod;  
    1036:	2079 004d 2c1c 	movea.l 4d2c1c <hw>,a0
    103c:	316f 0002 0062 	move.w 2(sp),98(a0)
  hw->bltapt = src4a;
    1042:	2079 004d 2c1c 	movea.l 4d2c1c <hw>,a0
    1048:	216f 000c 0050 	move.l 12(sp),80(a0)
  hw->bltbpt = src4b;
    104e:	2079 004d 2c1c 	movea.l 4d2c1c <hw>,a0
    1054:	216f 0010 004c 	move.l 16(sp),76(a0)
  hw->bltdpt = dst;
    105a:	2079 004d 2c1c 	movea.l 4d2c1c <hw>,a0
    1060:	216f 0014 0054 	move.l 20(sp),84(a0)
  hw->bltsize = (height<<6)+numofwords;
    1066:	302f 0006      	move.w 6(sp),d0
    106a:	ed48           	lsl.w #6,d0
    106c:	2079 004d 2c1c 	movea.l 4d2c1c <hw>,a0
    1072:	d057           	add.w (sp),d0
    1074:	3140 0058      	move.w d0,88(a0)
  
  WaitBlt();
    1078:	4eba f03a      	jsr b4 <WaitBlt>(pc)
  1111*/
  //0000 0000 1010 1010 1010 1010
  //0000 0001 0101 0101 0101 0101
  //                     4    a  

}
    107c:	508f           	addq.l #8,sp
    107e:	4e75           	rts

00001080 <Zoom_InitRun>:


void Zoom_InitRun() {
    1080:	4fef ffe0      	lea -32(sp),sp
    1084:	2f0e           	move.l a6,-(sp)
    
  Zoom_Counter = 0;
    1086:	4279 004d 2c5c 	clr.w 4d2c5c <Zoom_Counter>
  Zoom_ZoomBlitMask = AllocMem(4, MEMF_CHIP);
    108c:	7004           	moveq #4,d0
    108e:	2f40 0020      	move.l d0,32(sp)
    1092:	7002           	moveq #2,d0
    1094:	2f40 001c      	move.l d0,28(sp)
    1098:	2039 004d 2c20 	move.l 4d2c20 <SysBase>,d0
    109e:	2c40           	movea.l d0,a6
    10a0:	202f 0020      	move.l 32(sp),d0
    10a4:	222f 001c      	move.l 28(sp),d1
    10a8:	4eae ff3a      	jsr -198(a6)
    10ac:	2f40 0018      	move.l d0,24(sp)
    10b0:	202f 0018      	move.l 24(sp),d0
    10b4:	23c0 004d 2c4a 	move.l d0,4d2c4a <Zoom_ZoomBlitMask>
  Zoom_LevelOf102Zoom = 15;
    10ba:	33fc 000f 004d 	move.w #15,4d2c6a <Zoom_LevelOf102Zoom>
    10c0:	2c6a 
  ZoomHorizontal = 16;
    10c2:	33fc 0010 004d 	move.w #16,4d2c6e <ZoomHorizontal>
    10c8:	2c6e 
  Zoom_PrepareDisplay();
    10ca:	4eba 0288      	jsr 1354 <Zoom_PrepareDisplay>(pc)
  Zoom_LoadImage( Bitplane1);
  Zoom_ZoomIntoPicture( (UWORD *) Bitplane1, (UWORD *) Bitplane2, 0, 5);
  CopyMem( Bitplane2, Bitplane1, ZMBPLSIZE);
  CopyMem( Bitplane2, rawzoom, ZMBPLSIZE);*/
  
  Zoom_Shrink102( 15, Copperlist1);
    10ce:	2039 004d 2c04 	move.l 4d2c04 <Copperlist1>,d0
    10d4:	2f00           	move.l d0,-(sp)
    10d6:	4878 000f      	pea f <_start+0xf>
    10da:	4eba f330      	jsr 40c <Zoom_Shrink102>(pc)
    10de:	508f           	addq.l #8,sp
  Zoom_Shrink102( 15, Copperlist2);
    10e0:	2039 004d 2c08 	move.l 4d2c08 <Copperlist2>,d0
    10e6:	2f00           	move.l d0,-(sp)
    10e8:	4878 000f      	pea f <_start+0xf>
    10ec:	4eba f31e      	jsr 40c <Zoom_Shrink102>(pc)
    10f0:	508f           	addq.l #8,sp
  Zoom_LevelOfZoom = 1;
    10f2:	33fc 0001 004d 	move.w #1,4d2c68 <Zoom_LevelOfZoom>
    10f8:	2c68 
  Zoom_Direction = 1;                                                  
    10fa:	33fc 0001 004d 	move.w #1,4d2c6c <Zoom_Direction>
    1100:	2c6c 
  if ((Zoom_vbint = AllocMem(sizeof(struct Interrupt),    
    1102:	7016           	moveq #22,d0
    1104:	2f40 0014      	move.l d0,20(sp)
    1108:	2f7c 0001 0001 	move.l #65537,16(sp)
    110e:	0010 
    1110:	2039 004d 2c20 	move.l 4d2c20 <SysBase>,d0
    1116:	2c40           	movea.l d0,a6
    1118:	202f 0014      	move.l 20(sp),d0
    111c:	222f 0010      	move.l 16(sp),d1
    1120:	4eae ff3a      	jsr -198(a6)
    1124:	2f40 000c      	move.l d0,12(sp)
    1128:	202f 000c      	move.l 12(sp),d0
    112c:	23c0 004d 2c54 	move.l d0,4d2c54 <Zoom_vbint>
    1132:	2039 004d 2c54 	move.l 4d2c54 <Zoom_vbint>,d0
    1138:	673e           	beq.s 1178 <Zoom_InitRun+0xf8>
                         MEMF_PUBLIC|MEMF_CLEAR))) {
    Zoom_vbint->is_Node.ln_Type = NT_INTERRUPT;       
    113a:	2079 004d 2c54 	movea.l 4d2c54 <Zoom_vbint>,a0
    1140:	117c 0002 0008 	move.b #2,8(a0)
    Zoom_vbint->is_Node.ln_Pri = -60;
    1146:	2079 004d 2c54 	movea.l 4d2c54 <Zoom_vbint>,a0
    114c:	117c ffc4 0009 	move.b #-60,9(a0)
    Zoom_vbint->is_Node.ln_Name = "VertB-Example";
    1152:	2079 004d 2c54 	movea.l 4d2c54 <Zoom_vbint>,a0
    1158:	217c 0000 7d19 	move.l #32025,10(a0)
    115e:	000a 
    Zoom_vbint->is_Data = NULL;
    1160:	2079 004d 2c54 	movea.l 4d2c54 <Zoom_vbint>,a0
    1166:	42a8 000e      	clr.l 14(a0)
    Zoom_vbint->is_Code = Zoom_VblankHandler;
    116a:	2079 004d 2c54 	movea.l 4d2c54 <Zoom_vbint>,a0
    1170:	217c 0000 0d5c 	move.l #3420,18(a0)
    1176:	0012 
  }

  AddIntServer( INTB_VERTB, Zoom_vbint);
    1178:	7005           	moveq #5,d0
    117a:	2f40 0008      	move.l d0,8(sp)
    117e:	2f79 004d 2c54 	move.l 4d2c54 <Zoom_vbint>,4(sp)
    1184:	0004 
    1186:	2039 004d 2c20 	move.l 4d2c20 <SysBase>,d0
    118c:	2c40           	movea.l d0,a6
    118e:	202f 0008      	move.l 8(sp),d0
    1192:	226f 0004      	movea.l 4(sp),a1
    1196:	4eae ff58      	jsr -168(a6)
  Zoom_SetBplPointers( ViewBuffer, ViewCopper);
    119a:	2239 004d 2c18 	move.l 4d2c18 <ViewCopper>,d1
    11a0:	2039 004d 2c10 	move.l 4d2c10 <ViewBuffer>,d0
    11a6:	2f01           	move.l d1,-(sp)
    11a8:	2f00           	move.l d0,-(sp)
    11aa:	4eba 0c70      	jsr 1e1c <Zoom_SetBplPointers>(pc)
    11ae:	508f           	addq.l #8,sp
  Zoom_SetBplPointers( ViewBuffer, DrawCopper);
    11b0:	2239 004d 2c14 	move.l 4d2c14 <DrawCopper>,d1
    11b6:	2039 004d 2c10 	move.l 4d2c10 <ViewBuffer>,d0
    11bc:	2f01           	move.l d1,-(sp)
    11be:	2f00           	move.l d0,-(sp)
    11c0:	4eba 0c5a      	jsr 1e1c <Zoom_SetBplPointers>(pc)
    11c4:	508f           	addq.l #8,sp
  SwapCl();
    11c6:	4eba efd8      	jsr 1a0 <SwapCl>(pc)
  
}
    11ca:	2c5f           	movea.l (sp)+,a6
    11cc:	4fef 0020      	lea 32(sp),sp
    11d0:	4e75           	rts

000011d2 <Zoom_InitRunReverse>:

void Zoom_InitRunReverse() {
    11d2:	4fef ffe0      	lea -32(sp),sp
    11d6:	2f0e           	move.l a6,-(sp)
    
  Zoom_Counter = 0;
    11d8:	4279 004d 2c5c 	clr.w 4d2c5c <Zoom_Counter>
  Zoom_ZoomBlitMask = AllocMem(4, MEMF_CHIP);
    11de:	7004           	moveq #4,d0
    11e0:	2f40 0020      	move.l d0,32(sp)
    11e4:	7002           	moveq #2,d0
    11e6:	2f40 001c      	move.l d0,28(sp)
    11ea:	2039 004d 2c20 	move.l 4d2c20 <SysBase>,d0
    11f0:	2c40           	movea.l d0,a6
    11f2:	202f 0020      	move.l 32(sp),d0
    11f6:	222f 001c      	move.l 28(sp),d1
    11fa:	4eae ff3a      	jsr -198(a6)
    11fe:	2f40 0018      	move.l d0,24(sp)
    1202:	202f 0018      	move.l 24(sp),d0
    1206:	23c0 004d 2c4a 	move.l d0,4d2c4a <Zoom_ZoomBlitMask>
  Zoom_LevelOf102Zoom = 0;
    120c:	33fc 0000 004d 	move.w #0,4d2c6a <Zoom_LevelOf102Zoom>
    1212:	2c6a 
  ZoomHorizontal = 16;
    1214:	33fc 0010 004d 	move.w #16,4d2c6e <ZoomHorizontal>
    121a:	2c6e 
  Zoom_PrepareDisplay();
    121c:	4eba 0136      	jsr 1354 <Zoom_PrepareDisplay>(pc)
  Zoom_LoadImage( Bitplane1);
  Zoom_ZoomIntoPicture( (UWORD *) Bitplane1, (UWORD *) Bitplane2, 0, 5);
  CopyMem( Bitplane2, Bitplane1, ZMBPLSIZE);
  CopyMem( Bitplane2, rawzoom, ZMBPLSIZE);*/
  
  Zoom_Shrink102( 0, Copperlist1);
    1220:	2039 004d 2c04 	move.l 4d2c04 <Copperlist1>,d0
    1226:	2f00           	move.l d0,-(sp)
    1228:	42a7           	clr.l -(sp)
    122a:	4eba f1e0      	jsr 40c <Zoom_Shrink102>(pc)
    122e:	508f           	addq.l #8,sp
  Zoom_Shrink102( 0, Copperlist2);
    1230:	2039 004d 2c08 	move.l 4d2c08 <Copperlist2>,d0
    1236:	2f00           	move.l d0,-(sp)
    1238:	42a7           	clr.l -(sp)
    123a:	4eba f1d0      	jsr 40c <Zoom_Shrink102>(pc)
    123e:	508f           	addq.l #8,sp
  Zoom_LevelOfZoom = 17;
    1240:	33fc 0011 004d 	move.w #17,4d2c68 <Zoom_LevelOfZoom>
    1246:	2c68 
                                                  
  if ((Zoom_vbint = AllocMem(sizeof(struct Interrupt),    
    1248:	7016           	moveq #22,d0
    124a:	2f40 0014      	move.l d0,20(sp)
    124e:	2f7c 0001 0001 	move.l #65537,16(sp)
    1254:	0010 
    1256:	2039 004d 2c20 	move.l 4d2c20 <SysBase>,d0
    125c:	2c40           	movea.l d0,a6
    125e:	202f 0014      	move.l 20(sp),d0
    1262:	222f 0010      	move.l 16(sp),d1
    1266:	4eae ff3a      	jsr -198(a6)
    126a:	2f40 000c      	move.l d0,12(sp)
    126e:	202f 000c      	move.l 12(sp),d0
    1272:	23c0 004d 2c54 	move.l d0,4d2c54 <Zoom_vbint>
    1278:	2039 004d 2c54 	move.l 4d2c54 <Zoom_vbint>,d0
    127e:	673e           	beq.s 12be <Zoom_InitRunReverse+0xec>
                         MEMF_PUBLIC|MEMF_CLEAR))) {
    Zoom_vbint->is_Node.ln_Type = NT_INTERRUPT;       
    1280:	2079 004d 2c54 	movea.l 4d2c54 <Zoom_vbint>,a0
    1286:	117c 0002 0008 	move.b #2,8(a0)
    Zoom_vbint->is_Node.ln_Pri = -60;
    128c:	2079 004d 2c54 	movea.l 4d2c54 <Zoom_vbint>,a0
    1292:	117c ffc4 0009 	move.b #-60,9(a0)
    Zoom_vbint->is_Node.ln_Name = "VertB-Example";
    1298:	2079 004d 2c54 	movea.l 4d2c54 <Zoom_vbint>,a0
    129e:	217c 0000 7d19 	move.l #32025,10(a0)
    12a4:	000a 
    Zoom_vbint->is_Data = NULL;
    12a6:	2079 004d 2c54 	movea.l 4d2c54 <Zoom_vbint>,a0
    12ac:	42a8 000e      	clr.l 14(a0)
    Zoom_vbint->is_Code = Zoom_ReverseVblankHandler;
    12b0:	2079 004d 2c54 	movea.l 4d2c54 <Zoom_vbint>,a0
    12b6:	217c 0000 0e42 	move.l #3650,18(a0)
    12bc:	0012 
  }

  AddIntServer( INTB_VERTB, Zoom_vbint);
    12be:	7005           	moveq #5,d0
    12c0:	2f40 0008      	move.l d0,8(sp)
    12c4:	2f79 004d 2c54 	move.l 4d2c54 <Zoom_vbint>,4(sp)
    12ca:	0004 
    12cc:	2039 004d 2c20 	move.l 4d2c20 <SysBase>,d0
    12d2:	2c40           	movea.l d0,a6
    12d4:	202f 0008      	move.l 8(sp),d0
    12d8:	226f 0004      	movea.l 4(sp),a1
    12dc:	4eae ff58      	jsr -168(a6)
  Zoom_SetBplPointers( ViewBuffer, ViewCopper);
    12e0:	2239 004d 2c18 	move.l 4d2c18 <ViewCopper>,d1
    12e6:	2039 004d 2c10 	move.l 4d2c10 <ViewBuffer>,d0
    12ec:	2f01           	move.l d1,-(sp)
    12ee:	2f00           	move.l d0,-(sp)
    12f0:	4eba 0b2a      	jsr 1e1c <Zoom_SetBplPointers>(pc)
    12f4:	508f           	addq.l #8,sp
  Zoom_SetBplPointers( ViewBuffer, DrawCopper);
    12f6:	2239 004d 2c14 	move.l 4d2c14 <DrawCopper>,d1
    12fc:	2039 004d 2c10 	move.l 4d2c10 <ViewBuffer>,d0
    1302:	2f01           	move.l d1,-(sp)
    1304:	2f00           	move.l d0,-(sp)
    1306:	4eba 0b14      	jsr 1e1c <Zoom_SetBplPointers>(pc)
    130a:	508f           	addq.l #8,sp
  SwapCl();
    130c:	4eba ee92      	jsr 1a0 <SwapCl>(pc)
  
}
    1310:	2c5f           	movea.l (sp)+,a6
    1312:	4fef 0020      	lea 32(sp),sp
    1316:	4e75           	rts

00001318 <Zoom_Dealloc>:

void Zoom_Dealloc() {
    1318:	518f           	subq.l #8,sp
    131a:	2f0e           	move.l a6,-(sp)
  RemIntServer(INTB_VERTB, Zoom_vbint);
    131c:	7005           	moveq #5,d0
    131e:	2f40 0008      	move.l d0,8(sp)
    1322:	2f79 004d 2c54 	move.l 4d2c54 <Zoom_vbint>,4(sp)
    1328:	0004 
    132a:	2039 004d 2c20 	move.l 4d2c20 <SysBase>,d0
    1330:	2c40           	movea.l d0,a6
    1332:	202f 0008      	move.l 8(sp),d0
    1336:	226f 0004      	movea.l 4(sp),a1
    133a:	4eae ff52      	jsr -174(a6)
  FreeDisplay( ZMCPSIZE, ZMBPLSIZE);
    133e:	2f3c 0000 df20 	move.l #57120,-(sp)
    1344:	4878 031c      	pea 31c <Zoom_InsertShift+0x1e>
    1348:	4eba ed96      	jsr e0 <FreeDisplay>(pc)
    134c:	508f           	addq.l #8,sp
}
    134e:	2c5f           	movea.l (sp)+,a6
    1350:	508f           	addq.l #8,sp
    1352:	4e75           	rts

00001354 <Zoom_PrepareDisplay>:
  
int Zoom_PrepareDisplay() {
    1354:	4fef ffe8      	lea -24(sp),sp
    1358:	2f0e           	move.l a6,-(sp)
  ViewBuffer = AllocVec(268*42*5, MEMF_CHIP);  
    135a:	2f7c 0000 dbd8 	move.l #56280,24(sp)
    1360:	0018 
    1362:	7002           	moveq #2,d0
    1364:	2f40 0014      	move.l d0,20(sp)
    1368:	2039 004d 2c20 	move.l 4d2c20 <SysBase>,d0
    136e:	2c40           	movea.l d0,a6
    1370:	202f 0018      	move.l 24(sp),d0
    1374:	222f 0014      	move.l 20(sp),d1
    1378:	4eae fd54      	jsr -684(a6)
    137c:	2f40 0010      	move.l d0,16(sp)
    1380:	202f 0010      	move.l 16(sp),d0
    1384:	23c0 004d 2c10 	move.l d0,4d2c10 <ViewBuffer>
  DrawBuffer = AllocVec(268*42*5, MEMF_CHIP);
    138a:	2f7c 0000 dbd8 	move.l #56280,12(sp)
    1390:	000c 
    1392:	7002           	moveq #2,d0
    1394:	2f40 0008      	move.l d0,8(sp)
    1398:	2039 004d 2c20 	move.l 4d2c20 <SysBase>,d0
    139e:	2c40           	movea.l d0,a6
    13a0:	202f 000c      	move.l 12(sp),d0
    13a4:	222f 0008      	move.l 8(sp),d1
    13a8:	4eae fd54      	jsr -684(a6)
    13ac:	2f40 0004      	move.l d0,4(sp)
    13b0:	202f 0004      	move.l 4(sp),d0
    13b4:	23c0 004d 2c0c 	move.l d0,4d2c0c <DrawBuffer>
  Utils_CopyMem( rawzoom, ViewBuffer, 14070);
    13ba:	2239 004d 2c10 	move.l 4d2c10 <ViewBuffer>,d1
    13c0:	2039 0000 b8a0 	move.l b8a0 <rawzoom>,d0
    13c6:	4878 36f6      	pea 36f6 <TestBlitleftOfZoom+0x284>
    13ca:	2f01           	move.l d1,-(sp)
    13cc:	2f00           	move.l d0,-(sp)
    13ce:	4eba ee0e      	jsr 1de <Utils_CopyMem>(pc)
    13d2:	4fef 000c      	lea 12(sp),sp
  Utils_CopyMem( rawzoom, DrawBuffer, 14070);
    13d6:	2239 004d 2c0c 	move.l 4d2c0c <DrawBuffer>,d1
    13dc:	2039 0000 b8a0 	move.l b8a0 <rawzoom>,d0
    13e2:	4878 36f6      	pea 36f6 <TestBlitleftOfZoom+0x284>
    13e6:	2f01           	move.l d1,-(sp)
    13e8:	2f00           	move.l d0,-(sp)
    13ea:	4eba edf2      	jsr 1de <Utils_CopyMem>(pc)
    13ee:	4fef 000c      	lea 12(sp),sp
  //Zoom_SwapBuffers( 0);
  Copperlist1 = ClbuildZoom( );
    13f2:	4eba 0080      	jsr 1474 <ClbuildZoom>(pc)
    13f6:	23c0 004d 2c04 	move.l d0,4d2c04 <Copperlist1>
  Copperlist2 = ClbuildZoom( );
    13fc:	4eba 0076      	jsr 1474 <ClbuildZoom>(pc)
    1400:	23c0 004d 2c08 	move.l d0,4d2c08 <Copperlist2>
  if(Bitplane2 == 0) {
    Write(Output(), "Cannot allocate Memory for Bitplane2.\n", 38);
    Exit(1);
  }
  ViewBuffer = Bitplane2;*/
  DrawCopper = Copperlist1;
    1406:	2039 004d 2c04 	move.l 4d2c04 <Copperlist1>,d0
    140c:	23c0 004d 2c14 	move.l d0,4d2c14 <DrawCopper>
  ViewCopper = Copperlist2;
    1412:	2039 004d 2c08 	move.l 4d2c08 <Copperlist2>,d0
    1418:	23c0 004d 2c18 	move.l d0,4d2c18 <ViewCopper>
  return 0;
    141e:	7000           	moveq #0,d0
}
    1420:	2c5f           	movea.l (sp)+,a6
    1422:	4fef 0018      	lea 24(sp),sp
    1426:	4e75           	rts

00001428 <Zoom_Init>:

void Zoom_Init() {
    1428:	4fef fff4      	lea -12(sp),sp
    142c:	2f0e           	move.l a6,-(sp)
  Zoom_ZoomBlitMask = AllocMem(4, MEMF_CHIP);
    142e:	7004           	moveq #4,d0
    1430:	2f40 000c      	move.l d0,12(sp)
    1434:	7002           	moveq #2,d0
    1436:	2f40 0008      	move.l d0,8(sp)
    143a:	2039 004d 2c20 	move.l 4d2c20 <SysBase>,d0
    1440:	2c40           	movea.l d0,a6
    1442:	202f 000c      	move.l 12(sp),d0
    1446:	222f 0008      	move.l 8(sp),d1
    144a:	4eae ff3a      	jsr -198(a6)
    144e:	2f40 0004      	move.l d0,4(sp)
    1452:	202f 0004      	move.l 4(sp),d0
    1456:	23c0 004d 2c4a 	move.l d0,4d2c4a <Zoom_ZoomBlitMask>
  ZoomHorizontal = 16;
    145c:	33fc 0010 004d 	move.w #16,4d2c6e <ZoomHorizontal>
    1462:	2c6e 
  Zoom_LevelOf102Zoom = 15;
    1464:	33fc 000f 004d 	move.w #15,4d2c6a <Zoom_LevelOf102Zoom>
    146a:	2c6a 
}
    146c:	2c5f           	movea.l (sp)+,a6
    146e:	4fef 000c      	lea 12(sp),sp
    1472:	4e75           	rts

00001474 <ClbuildZoom>:


ULONG * ClbuildZoom() {
    1474:	4fef ffac      	lea -84(sp),sp
    1478:	48e7 3002      	movem.l d2-d3/a6,-(sp)
  
  ULONG *retval = AllocMem(  ZMCPSIZE, MEMF_CHIP);
    147c:	2f7c 0000 031c 	move.l #796,68(sp)
    1482:	0044 
    1484:	7002           	moveq #2,d0
    1486:	2f40 0040      	move.l d0,64(sp)
    148a:	2039 004d 2c20 	move.l 4d2c20 <SysBase>,d0
    1490:	2c40           	movea.l d0,a6
    1492:	202f 0044      	move.l 68(sp),d0
    1496:	222f 0040      	move.l 64(sp),d1
    149a:	4eae ff3a      	jsr -198(a6)
    149e:	2f40 003c      	move.l d0,60(sp)
    14a2:	202f 003c      	move.l 60(sp),d0
    14a6:	2f40 0038      	move.l d0,56(sp)
  
  if( retval == 0) {
    14aa:	6658           	bne.s 1504 <ClbuildZoom+0x90>
    Write( Output(), "Allocation of Ram for Copper failed.\n", 40);
    14ac:	2039 004d 2c28 	move.l 4d2c28 <DOSBase>,d0
    14b2:	2c40           	movea.l d0,a6
    14b4:	4eae ffc4      	jsr -60(a6)
    14b8:	2f40 0034      	move.l d0,52(sp)
    14bc:	202f 0034      	move.l 52(sp),d0
    14c0:	2f40 0030      	move.l d0,48(sp)
    14c4:	2f7c 0000 7cf3 	move.l #31987,44(sp)
    14ca:	002c 
    14cc:	7228           	moveq #40,d1
    14ce:	2f41 0028      	move.l d1,40(sp)
    14d2:	2039 004d 2c28 	move.l 4d2c28 <DOSBase>,d0
    14d8:	2c40           	movea.l d0,a6
    14da:	222f 0030      	move.l 48(sp),d1
    14de:	242f 002c      	move.l 44(sp),d2
    14e2:	262f 0028      	move.l 40(sp),d3
    14e6:	4eae ffd0      	jsr -48(a6)
    14ea:	2f40 0024      	move.l d0,36(sp)
    Exit(1);
    14ee:	7401           	moveq #1,d2
    14f0:	2f42 0020      	move.l d2,32(sp)
    14f4:	2039 004d 2c28 	move.l 4d2c28 <DOSBase>,d0
    14fa:	2c40           	movea.l d0,a6
    14fc:	222f 0020      	move.l 32(sp),d1
    1500:	4eae ff70      	jsr -144(a6)
  }
  ULONG *cl = retval;
    1504:	2f6f 0038 005c 	move.l 56(sp),92(sp)
  //clinstruction = DrawCopper;
  ULONG *clpartinstruction;
  clpartinstruction = ClsSprites;
    150a:	2f7c 0000 a68c 	move.l #42636,88(sp)
    1510:	0058 
  for(int i=0; i<16;i++)
    1512:	42af 0054      	clr.l 84(sp)
    1516:	6024           	bra.s 153c <ClbuildZoom+0xc8>
    *cl++ = *clpartinstruction++;
    1518:	222f 0058      	move.l 88(sp),d1
    151c:	2001           	move.l d1,d0
    151e:	5880           	addq.l #4,d0
    1520:	2f40 0058      	move.l d0,88(sp)
    1524:	202f 005c      	move.l 92(sp),d0
    1528:	2400           	move.l d0,d2
    152a:	5882           	addq.l #4,d2
    152c:	2f42 005c      	move.l d2,92(sp)
    1530:	2041           	movea.l d1,a0
    1532:	2210           	move.l (a0),d1
    1534:	2040           	movea.l d0,a0
    1536:	2081           	move.l d1,(a0)
  for(int i=0; i<16;i++)
    1538:	52af 0054      	addq.l #1,84(sp)
    153c:	700f           	moveq #15,d0
    153e:	b0af 0054      	cmp.l 84(sp),d0
    1542:	6cd4           	bge.s 1518 <ClbuildZoom+0xa4>
  //clpartinstruction = ClScreenZoom;
  clpartinstruction = ClScreen;
    1544:	2f7c 0000 a6cc 	move.l #42700,88(sp)
    154a:	0058 
  for(int i=0; i<12;i++)
    154c:	42af 0050      	clr.l 80(sp)
    1550:	6024           	bra.s 1576 <ClbuildZoom+0x102>
    *cl++ = *clpartinstruction++;
    1552:	222f 0058      	move.l 88(sp),d1
    1556:	2401           	move.l d1,d2
    1558:	5882           	addq.l #4,d2
    155a:	2f42 0058      	move.l d2,88(sp)
    155e:	202f 005c      	move.l 92(sp),d0
    1562:	2400           	move.l d0,d2
    1564:	5882           	addq.l #4,d2
    1566:	2f42 005c      	move.l d2,92(sp)
    156a:	2041           	movea.l d1,a0
    156c:	2210           	move.l (a0),d1
    156e:	2040           	movea.l d0,a0
    1570:	2081           	move.l d1,(a0)
  for(int i=0; i<12;i++)
    1572:	52af 0050      	addq.l #1,80(sp)
    1576:	700b           	moveq #11,d0
    1578:	b0af 0050      	cmp.l 80(sp),d0
    157c:	6cd4           	bge.s 1552 <ClbuildZoom+0xde>
  //cl[CopBpl1High] = (long) cl + 2;
  *cl++ = 0x00e00000;
    157e:	202f 005c      	move.l 92(sp),d0
    1582:	2200           	move.l d0,d1
    1584:	5881           	addq.l #4,d1
    1586:	2f41 005c      	move.l d1,92(sp)
    158a:	2040           	movea.l d0,a0
    158c:	20bc 00e0 0000 	move.l #14680064,(a0)
  //cl[CopBpl1Low] = (long) cl + 2;
  *cl++ = 0x00e20000;
    1592:	202f 005c      	move.l 92(sp),d0
    1596:	2200           	move.l d0,d1
    1598:	5881           	addq.l #4,d1
    159a:	2f41 005c      	move.l d1,92(sp)
    159e:	2040           	movea.l d0,a0
    15a0:	20bc 00e2 0000 	move.l #14811136,(a0)
  *cl++ = 0x00e40000;
    15a6:	202f 005c      	move.l 92(sp),d0
    15aa:	2200           	move.l d0,d1
    15ac:	5881           	addq.l #4,d1
    15ae:	2f41 005c      	move.l d1,92(sp)
    15b2:	2040           	movea.l d0,a0
    15b4:	20bc 00e4 0000 	move.l #14942208,(a0)
  *cl++ = 0x00e60000;
    15ba:	202f 005c      	move.l 92(sp),d0
    15be:	2200           	move.l d0,d1
    15c0:	5881           	addq.l #4,d1
    15c2:	2f41 005c      	move.l d1,92(sp)
    15c6:	2040           	movea.l d0,a0
    15c8:	20bc 00e6 0000 	move.l #15073280,(a0)
  *cl++ = 0x00e80000;
    15ce:	202f 005c      	move.l 92(sp),d0
    15d2:	2200           	move.l d0,d1
    15d4:	5881           	addq.l #4,d1
    15d6:	2f41 005c      	move.l d1,92(sp)
    15da:	2040           	movea.l d0,a0
    15dc:	20bc 00e8 0000 	move.l #15204352,(a0)
  *cl++ = 0x00ea0000;
    15e2:	202f 005c      	move.l 92(sp),d0
    15e6:	2200           	move.l d0,d1
    15e8:	5881           	addq.l #4,d1
    15ea:	2f41 005c      	move.l d1,92(sp)
    15ee:	2040           	movea.l d0,a0
    15f0:	20bc 00ea 0000 	move.l #15335424,(a0)
  *cl++ = 0x00ec0000;
    15f6:	202f 005c      	move.l 92(sp),d0
    15fa:	2200           	move.l d0,d1
    15fc:	5881           	addq.l #4,d1
    15fe:	2f41 005c      	move.l d1,92(sp)
    1602:	2040           	movea.l d0,a0
    1604:	20bc 00ec 0000 	move.l #15466496,(a0)
  *cl++ = 0x00ee0000;
    160a:	202f 005c      	move.l 92(sp),d0
    160e:	2200           	move.l d0,d1
    1610:	5881           	addq.l #4,d1
    1612:	2f41 005c      	move.l d1,92(sp)
    1616:	2040           	movea.l d0,a0
    1618:	20bc 00ee 0000 	move.l #15597568,(a0)
  *cl++ = 0x00f00000;
    161e:	202f 005c      	move.l 92(sp),d0
    1622:	2200           	move.l d0,d1
    1624:	5881           	addq.l #4,d1
    1626:	2f41 005c      	move.l d1,92(sp)
    162a:	2040           	movea.l d0,a0
    162c:	20bc 00f0 0000 	move.l #15728640,(a0)
  *cl++ = 0x00f20000;
    1632:	202f 005c      	move.l 92(sp),d0
    1636:	2200           	move.l d0,d1
    1638:	5881           	addq.l #4,d1
    163a:	2f41 005c      	move.l d1,92(sp)
    163e:	2040           	movea.l d0,a0
    1640:	20bc 00f2 0000 	move.l #15859712,(a0)

  clpartinstruction = ClColor;
    1646:	2f7c 0000 a60c 	move.l #42508,88(sp)
    164c:	0058 
  for(int i=0; i<32;i++)
    164e:	42af 004c      	clr.l 76(sp)
    1652:	6024           	bra.s 1678 <ClbuildZoom+0x204>
    *cl++ = *clpartinstruction++;
    1654:	222f 0058      	move.l 88(sp),d1
    1658:	2001           	move.l d1,d0
    165a:	5880           	addq.l #4,d0
    165c:	2f40 0058      	move.l d0,88(sp)
    1660:	202f 005c      	move.l 92(sp),d0
    1664:	2400           	move.l d0,d2
    1666:	5882           	addq.l #4,d2
    1668:	2f42 005c      	move.l d2,92(sp)
    166c:	2041           	movea.l d1,a0
    166e:	2210           	move.l (a0),d1
    1670:	2040           	movea.l d0,a0
    1672:	2081           	move.l d1,(a0)
  for(int i=0; i<32;i++)
    1674:	52af 004c      	addq.l #1,76(sp)
    1678:	701f           	moveq #31,d0
    167a:	b0af 004c      	cmp.l 76(sp),d0
    167e:	6cd4           	bge.s 1654 <ClbuildZoom+0x1e0>
  
  ULONG cop2 = cl+3;
    1680:	700c           	moveq #12,d0
    1682:	d0af 005c      	add.l 92(sp),d0
    1686:	2f40 001c      	move.l d0,28(sp)
  ULONG cop2lch = 0x00840000 + ( cop2 >> 16);
    168a:	202f 001c      	move.l 28(sp),d0
    168e:	4240           	clr.w d0
    1690:	4840           	swap d0
    1692:	2200           	move.l d0,d1
    1694:	0681 0084 0000 	addi.l #8650752,d1
    169a:	2f41 0018      	move.l d1,24(sp)
  ULONG cop2lcl = 0x00860000 + (cop2 & 0xffff);
    169e:	202f 001c      	move.l 28(sp),d0
    16a2:	0280 0000 ffff 	andi.l #65535,d0
    16a8:	2400           	move.l d0,d2
    16aa:	0682 0086 0000 	addi.l #8781824,d2
    16b0:	2f42 0014      	move.l d2,20(sp)
  //clpartinstruction = Cl102ZoomInit;
  *cl++ = cop2lch;
    16b4:	202f 005c      	move.l 92(sp),d0
    16b8:	2200           	move.l d0,d1
    16ba:	5881           	addq.l #4,d1
    16bc:	2f41 005c      	move.l d1,92(sp)
    16c0:	2040           	movea.l d0,a0
    16c2:	20af 0018      	move.l 24(sp),(a0)
  *cl++ = cop2lcl;
    16c6:	202f 005c      	move.l 92(sp),d0
    16ca:	2200           	move.l d0,d1
    16cc:	5881           	addq.l #4,d1
    16ce:	2f41 005c      	move.l d1,92(sp)
    16d2:	2040           	movea.l d0,a0
    16d4:	20af 0014      	move.l 20(sp),(a0)
  *cl++ = 0x2c01ff00;
    16d8:	202f 005c      	move.l 92(sp),d0
    16dc:	2200           	move.l d0,d1
    16de:	5881           	addq.l #4,d1
    16e0:	2f41 005c      	move.l d1,92(sp)
    16e4:	2040           	movea.l d0,a0
    16e6:	20bc 2c01 ff00 	move.l #738328320,(a0)

  ULONG cop2br1 = cop2 + ( (30)<<2);
    16ec:	7078           	moveq #120,d0
    16ee:	d0af 001c      	add.l 28(sp),d0
    16f2:	2f40 0010      	move.l d0,16(sp)
  ULONG cop2br2 = cop2 + ( (86)<<2);
    16f6:	222f 001c      	move.l 28(sp),d1
    16fa:	0681 0000 0158 	addi.l #344,d1
    1700:	2f41 000c      	move.l d1,12(sp)
  clpartinstruction = Cl102ZoomRepeat;
    1704:	2f7c 0000 a708 	move.l #42760,88(sp)
    170a:	0058 
  clpartinstruction[28] = 0x00840000 + ( cop2br1 >> 16);
    170c:	202f 0010      	move.l 16(sp),d0
    1710:	4240           	clr.w d0
    1712:	4840           	swap d0
    1714:	307c 0070      	movea.w #112,a0
    1718:	d1ef 0058      	adda.l 88(sp),a0
    171c:	0680 0084 0000 	addi.l #8650752,d0
    1722:	2080           	move.l d0,(a0)
  clpartinstruction[29] = 0x00860000 + ( cop2br1 & 0xffff);
    1724:	202f 0010      	move.l 16(sp),d0
    1728:	0280 0000 ffff 	andi.l #65535,d0
    172e:	307c 0074      	movea.w #116,a0
    1732:	d1ef 0058      	adda.l 88(sp),a0
    1736:	0680 0086 0000 	addi.l #8781824,d0
    173c:	2080           	move.l d0,(a0)
  clpartinstruction[84] = 0x00840000 + ( cop2br2 >> 16);
    173e:	202f 000c      	move.l 12(sp),d0
    1742:	4240           	clr.w d0
    1744:	4840           	swap d0
    1746:	206f 0058      	movea.l 88(sp),a0
    174a:	41e8 0150      	lea 336(a0),a0
    174e:	0680 0084 0000 	addi.l #8650752,d0
    1754:	2080           	move.l d0,(a0)
  clpartinstruction[85] = 0x00860000 + ( cop2br2 & 0xffff);
    1756:	202f 000c      	move.l 12(sp),d0
    175a:	0280 0000 ffff 	andi.l #65535,d0
    1760:	206f 0058      	movea.l 88(sp),a0
    1764:	41e8 0154      	lea 340(a0),a0
    1768:	0680 0086 0000 	addi.l #8781824,d0
    176e:	2080           	move.l d0,(a0)
  for(int i=0;i<26+27+27+26+27+1-8-12;i++)
    1770:	42af 0048      	clr.l 72(sp)
    1774:	6024           	bra.s 179a <ClbuildZoom+0x326>
    *cl++ = *clpartinstruction++;
    1776:	222f 0058      	move.l 88(sp),d1
    177a:	2401           	move.l d1,d2
    177c:	5882           	addq.l #4,d2
    177e:	2f42 0058      	move.l d2,88(sp)
    1782:	202f 005c      	move.l 92(sp),d0
    1786:	2400           	move.l d0,d2
    1788:	5882           	addq.l #4,d2
    178a:	2f42 005c      	move.l d2,92(sp)
    178e:	2041           	movea.l d1,a0
    1790:	2210           	move.l (a0),d1
    1792:	2040           	movea.l d0,a0
    1794:	2081           	move.l d1,(a0)
  for(int i=0;i<26+27+27+26+27+1-8-12;i++)
    1796:	52af 0048      	addq.l #1,72(sp)
    179a:	7071           	moveq #113,d0
    179c:	b0af 0048      	cmp.l 72(sp),d0
    17a0:	6cd4           	bge.s 1776 <ClbuildZoom+0x302>

   *cl++ = 0xfffffffe;
    17a2:	202f 005c      	move.l 92(sp),d0
    17a6:	2200           	move.l d0,d1
    17a8:	5881           	addq.l #4,d1
    17aa:	2f41 005c      	move.l d1,92(sp)
    17ae:	74fe           	moveq #-2,d2
    17b0:	2040           	movea.l d0,a0
    17b2:	2082           	move.l d2,(a0)

  return retval;
    17b4:	202f 0038      	move.l 56(sp),d0
}
    17b8:	4cdf 400c      	movem.l (sp)+,d2-d3/a6
    17bc:	4fef 0054      	lea 84(sp),sp
    17c0:	4e75           	rts

000017c2 <PrepareDisplayZoom>:

 int PrepareDisplayZoom() {
    17c2:	4fef ffb8      	lea -72(sp),sp
    17c6:	48e7 3002      	movem.l d2-d3/a6,-(sp)

  Copperlist1 = ClbuildZoom();
    17ca:	4eba fca8      	jsr 1474 <ClbuildZoom>(pc)
    17ce:	23c0 004d 2c04 	move.l d0,4d2c04 <Copperlist1>
  Copperlist2 = ClbuildZoom();
    17d4:	4eba fc9e      	jsr 1474 <ClbuildZoom>(pc)
    17d8:	23c0 004d 2c08 	move.l d0,4d2c08 <Copperlist2>
  Bitplane1 = AllocMem(ZMBPLSIZE, MEMF_CHIP);
    17de:	2f7c 0000 df20 	move.l #57120,80(sp)
    17e4:	0050 
    17e6:	7002           	moveq #2,d0
    17e8:	2f40 004c      	move.l d0,76(sp)
    17ec:	2039 004d 2c20 	move.l 4d2c20 <SysBase>,d0
    17f2:	2c40           	movea.l d0,a6
    17f4:	202f 0050      	move.l 80(sp),d0
    17f8:	222f 004c      	move.l 76(sp),d1
    17fc:	4eae ff3a      	jsr -198(a6)
    1800:	2f40 0048      	move.l d0,72(sp)
    1804:	202f 0048      	move.l 72(sp),d0
    1808:	23c0 004d 2bfc 	move.l d0,4d2bfc <Bitplane1>
  if(Bitplane1 == 0) {
    180e:	2039 004d 2bfc 	move.l 4d2bfc <Bitplane1>,d0
    1814:	6658           	bne.s 186e <PrepareDisplayZoom+0xac>
    Write(Output(), "Cannot allocate Memory for Bitplane1.\n",38);
    1816:	2039 004d 2c28 	move.l 4d2c28 <DOSBase>,d0
    181c:	2c40           	movea.l d0,a6
    181e:	4eae ffc4      	jsr -60(a6)
    1822:	2f40 0044      	move.l d0,68(sp)
    1826:	202f 0044      	move.l 68(sp),d0
    182a:	2f40 0040      	move.l d0,64(sp)
    182e:	2f7c 0000 7ca5 	move.l #31909,60(sp)
    1834:	003c 
    1836:	7026           	moveq #38,d0
    1838:	2f40 0038      	move.l d0,56(sp)
    183c:	2039 004d 2c28 	move.l 4d2c28 <DOSBase>,d0
    1842:	2c40           	movea.l d0,a6
    1844:	222f 0040      	move.l 64(sp),d1
    1848:	242f 003c      	move.l 60(sp),d2
    184c:	262f 0038      	move.l 56(sp),d3
    1850:	4eae ffd0      	jsr -48(a6)
    1854:	2f40 0034      	move.l d0,52(sp)
    Exit(1);
    1858:	7001           	moveq #1,d0
    185a:	2f40 0030      	move.l d0,48(sp)
    185e:	2039 004d 2c28 	move.l 4d2c28 <DOSBase>,d0
    1864:	2c40           	movea.l d0,a6
    1866:	222f 0030      	move.l 48(sp),d1
    186a:	4eae ff70      	jsr -144(a6)
  }
  DrawBuffer = Bitplane1;
    186e:	2039 004d 2bfc 	move.l 4d2bfc <Bitplane1>,d0
    1874:	23c0 004d 2c0c 	move.l d0,4d2c0c <DrawBuffer>
  DrawCopper = Copperlist1;
    187a:	2039 004d 2c04 	move.l 4d2c04 <Copperlist1>,d0
    1880:	23c0 004d 2c14 	move.l d0,4d2c14 <DrawCopper>
  Bitplane2 = AllocMem(ZMBPLSIZE, MEMF_CHIP);
    1886:	2f7c 0000 df20 	move.l #57120,44(sp)
    188c:	002c 
    188e:	7002           	moveq #2,d0
    1890:	2f40 0028      	move.l d0,40(sp)
    1894:	2039 004d 2c20 	move.l 4d2c20 <SysBase>,d0
    189a:	2c40           	movea.l d0,a6
    189c:	202f 002c      	move.l 44(sp),d0
    18a0:	222f 0028      	move.l 40(sp),d1
    18a4:	4eae ff3a      	jsr -198(a6)
    18a8:	2f40 0024      	move.l d0,36(sp)
    18ac:	202f 0024      	move.l 36(sp),d0
    18b0:	23c0 004d 2c00 	move.l d0,4d2c00 <Bitplane2>
  if(Bitplane2 == 0) {
    18b6:	2039 004d 2c00 	move.l 4d2c00 <Bitplane2>,d0
    18bc:	6658           	bne.s 1916 <PrepareDisplayZoom+0x154>
    Write(Output(), "Cannot allocate Memory for Bitplane2.\n", 38);
    18be:	2039 004d 2c28 	move.l 4d2c28 <DOSBase>,d0
    18c4:	2c40           	movea.l d0,a6
    18c6:	4eae ffc4      	jsr -60(a6)
    18ca:	2f40 0020      	move.l d0,32(sp)
    18ce:	202f 0020      	move.l 32(sp),d0
    18d2:	2f40 001c      	move.l d0,28(sp)
    18d6:	2f7c 0000 7ccc 	move.l #31948,24(sp)
    18dc:	0018 
    18de:	7026           	moveq #38,d0
    18e0:	2f40 0014      	move.l d0,20(sp)
    18e4:	2039 004d 2c28 	move.l 4d2c28 <DOSBase>,d0
    18ea:	2c40           	movea.l d0,a6
    18ec:	222f 001c      	move.l 28(sp),d1
    18f0:	242f 0018      	move.l 24(sp),d2
    18f4:	262f 0014      	move.l 20(sp),d3
    18f8:	4eae ffd0      	jsr -48(a6)
    18fc:	2f40 0010      	move.l d0,16(sp)
    Exit(1);
    1900:	7001           	moveq #1,d0
    1902:	2f40 000c      	move.l d0,12(sp)
    1906:	2039 004d 2c28 	move.l 4d2c28 <DOSBase>,d0
    190c:	2c40           	movea.l d0,a6
    190e:	222f 000c      	move.l 12(sp),d1
    1912:	4eae ff70      	jsr -144(a6)
  }
  ViewBuffer = Bitplane2;
    1916:	2039 004d 2c00 	move.l 4d2c00 <Bitplane2>,d0
    191c:	23c0 004d 2c10 	move.l d0,4d2c10 <ViewBuffer>
  ViewCopper = Copperlist2; 
    1922:	2039 004d 2c08 	move.l 4d2c08 <Copperlist2>,d0
    1928:	23c0 004d 2c18 	move.l d0,4d2c18 <ViewCopper>
  return 0;
    192e:	7000           	moveq #0,d0
}
    1930:	4cdf 400c      	movem.l (sp)+,d2-d3/a6
    1934:	4fef 0048      	lea 72(sp),sp
    1938:	4e75           	rts

0000193a <Init_Blit>:

void Init_Blit() {
  hw->bltafwm = 0xffff;
    193a:	2079 004d 2c1c 	movea.l 4d2c1c <hw>,a0
    1940:	317c ffff 0044 	move.w #-1,68(a0)
  hw->bltalwm = 0xffff;
    1946:	2079 004d 2c1c 	movea.l 4d2c1c <hw>,a0
    194c:	317c ffff 0046 	move.w #-1,70(a0)
  hw->bltamod = ZMLINESIZE - 4;
    1952:	2079 004d 2c1c 	movea.l 4d2c1c <hw>,a0
    1958:	317c 0026 0064 	move.w #38,100(a0)
  hw->bltbmod = ZMLINESIZE - 4;
    195e:	2079 004d 2c1c 	movea.l 4d2c1c <hw>,a0
    1964:	317c 0026 0062 	move.w #38,98(a0)
  hw->bltdmod = ZMLINESIZE - 4;
    196a:	2079 004d 2c1c 	movea.l 4d2c1c <hw>,a0
    1970:	317c 0026 0066 	move.w #38,102(a0)
}
    1976:	4e75           	rts

00001978 <Init_Blit2>:


void Init_Blit2() {
  hw->bltafwm = 0xffff;
    1978:	2079 004d 2c1c 	movea.l 4d2c1c <hw>,a0
    197e:	317c ffff 0044 	move.w #-1,68(a0)
  hw->bltalwm = 0xffff;
    1984:	2079 004d 2c1c 	movea.l 4d2c1c <hw>,a0
    198a:	317c ffff 0046 	move.w #-1,70(a0)
  hw->bltamod = 36;
    1990:	2079 004d 2c1c 	movea.l 4d2c1c <hw>,a0
    1996:	317c 0024 0064 	move.w #36,100(a0)
  hw->bltbmod = 76;
    199c:	2079 004d 2c1c 	movea.l 4d2c1c <hw>,a0
    19a2:	317c 004c 0062 	move.w #76,98(a0)
  hw->bltdmod = ZMLINESIZE2 - 4;
    19a8:	2079 004d 2c1c 	movea.l 4d2c1c <hw>,a0
    19ae:	317c 0028 0066 	move.w #40,102(a0)
}
    19b4:	4e75           	rts

000019b6 <Init_ZoomBlit>:

void Init_ZoomBlit( UWORD startofword, WORD nextzoom, WORD shiftright) {
    19b6:	4fef fff4      	lea -12(sp),sp
    19ba:	206f 0010      	movea.l 16(sp),a0
    19be:	222f 0014      	move.l 20(sp),d1
    19c2:	202f 0018      	move.l 24(sp),d0
    19c6:	3048           	movea.w a0,a0
    19c8:	3f48 0004      	move.w a0,4(sp)
    19cc:	3201           	move.w d1,d1
    19ce:	3f41 0002      	move.w d1,2(sp)
    19d2:	3000           	move.w d0,d0
    19d4:	3e80           	move.w d0,(sp)
  ZoomBlit_Increment4SrcA = 0;
    19d6:	4279 004d 2c52 	clr.w 4d2c52 <ZoomBlit_Increment4SrcA>

  UWORD colnr = nextzoom - startofword - 1;                                                                          
    19dc:	302f 0002      	move.w 2(sp),d0
    19e0:	906f 0004      	sub.w 4(sp),d0
    19e4:	3200           	move.w d0,d1
    19e6:	5341           	subq.w #1,d1
    19e8:	3f41 0008      	move.w d1,8(sp)
  UWORD shiftb = shiftright << 12;    //SEEEEE0|12.X..f E=Empty
    19ec:	3017           	move.w (sp),d0
    19ee:	720c           	moveq #12,d1
    19f0:	e368           	lsl.w d1,d0
    19f2:	3f40 0006      	move.w d0,6(sp)
  UWORD shifta;
  if( shiftright == 0) {
    19f6:	4a57           	tst.w (sp)
    19f8:	6610           	bne.s 1a0a <Init_ZoomBlit+0x54>
    ZoomBlit_Increment4SrcA = 1;
    19fa:	33fc 0001 004d 	move.w #1,4d2c52 <ZoomBlit_Increment4SrcA>
    1a00:	2c52 
    shifta = 15 << 12;
    1a02:	3f7c f000 000a 	move.w #-4096,10(sp)
    1a08:	600c           	bra.s 1a16 <Init_ZoomBlit+0x60>
  } else {
    shifta = (shiftright - 1) << 12;
    1a0a:	3017           	move.w (sp),d0
    1a0c:	5340           	subq.w #1,d0
    1a0e:	720c           	moveq #12,d1
    1a10:	e368           	lsl.w d1,d0
    1a12:	3f40 000a      	move.w d0,10(sp)
  }
  WaitBlt(); 
    1a16:	4eba e69c      	jsr b4 <WaitBlt>(pc)
  hw->bltcon1 = shiftb; 
    1a1a:	2079 004d 2c1c 	movea.l 4d2c1c <hw>,a0
    1a20:	316f 0006 0042 	move.w 6(sp),66(a0)
  hw->bltcon0 = 0xde4 + shifta;
    1a26:	2079 004d 2c1c 	movea.l 4d2c1c <hw>,a0
    1a2c:	302f 000a      	move.w 10(sp),d0
    1a30:	0640 0de4      	addi.w #3556,d0
    1a34:	3140 0040      	move.w d0,64(a0)
  hw->bltcdat = (0xffff << (16-colnr)) & 0xffff;
    1a38:	7000           	moveq #0,d0
    1a3a:	302f 0008      	move.w 8(sp),d0
    1a3e:	7210           	moveq #16,d1
    1a40:	9280           	sub.l d0,d1
    1a42:	7000           	moveq #0,d0
    1a44:	4640           	not.w d0
    1a46:	e3a8           	lsl.l d1,d0
    1a48:	2079 004d 2c1c 	movea.l 4d2c1c <hw>,a0
    1a4e:	2000           	move.l d0,d0
    1a50:	3140 0070      	move.w d0,112(a0)
}
    1a54:	4fef 000c      	lea 12(sp),sp
    1a58:	4e75           	rts

00001a5a <Init_Copy>:

void Init_Copy( WORD shift) {
    1a5a:	598f           	subq.l #4,sp
    1a5c:	202f 0008      	move.l 8(sp),d0
    1a60:	3000           	move.w d0,d0
    1a62:	3e80           	move.w d0,(sp)
  UWORD shiftright = shift << 12;
    1a64:	3017           	move.w (sp),d0
    1a66:	720c           	moveq #12,d1
    1a68:	e368           	lsl.w d1,d0
    1a6a:	3f40 0002      	move.w d0,2(sp)
  WaitBlt();
    1a6e:	4eba e644      	jsr b4 <WaitBlt>(pc)
  hw->bltcon0 = 0x9f0 + shiftright;
    1a72:	2079 004d 2c1c 	movea.l 4d2c1c <hw>,a0
    1a78:	302f 0002      	move.w 2(sp),d0
    1a7c:	0640 09f0      	addi.w #2544,d0
    1a80:	3140 0040      	move.w d0,64(a0)
  hw->bltcon1 = 0;
    1a84:	2079 004d 2c1c 	movea.l 4d2c1c <hw>,a0
    1a8a:	317c 0000 0042 	move.w #0,66(a0)
}
    1a90:	588f           	addq.l #4,sp
    1a92:	4e75           	rts

00001a94 <Zoom_ZoomIntoPicture>:

void Zoom_ZoomIntoPicture( UWORD *source, UWORD *destination, UWORD zoomnr, 
                                                                 UWORD planes) {
    1a94:	4fef ffcc      	lea -52(sp),sp
    1a98:	222f 0040      	move.l 64(sp),d1
    1a9c:	202f 0044      	move.l 68(sp),d0
    1aa0:	3201           	move.w d1,d1
    1aa2:	3f41 0002      	move.w d1,2(sp)
    1aa6:	3000           	move.w d0,d0
    1aa8:	3e80           	move.w d0,(sp)
  
  WaitBlt();  
    1aaa:	4eba e608      	jsr b4 <WaitBlt>(pc)
  Init_Blit();
    1aae:	4eba fe8a      	jsr 193a <Init_Blit>(pc)
  WORD shiftright = 9;
    1ab2:	3f7c 0009 0032 	move.w #9,50(sp)
  UWORD shifthoriz = 7;
    1ab8:	3f7c 0007 0030 	move.w #7,48(sp)
  UWORD startofword = 21*16;
    1abe:	3f7c 0150 002e 	move.w #336,46(sp)
  WORD nextzoom = 22*16 - 20 + zoomnr * 10;
    1ac4:	322f 0002      	move.w 2(sp),d1
    1ac8:	3001           	move.w d1,d0
    1aca:	d040           	add.w d0,d0
    1acc:	d040           	add.w d0,d0
    1ace:	d041           	add.w d1,d0
    1ad0:	d040           	add.w d0,d0
    1ad2:	0640 014c      	addi.w #332,d0
    1ad6:	3f40 002c      	move.w d0,44(sp)
    1ada:	601a           	bra.s 1af6 <Zoom_ZoomIntoPicture+0x62>
  while( nextzoom > 22 * 16) {
    nextzoom -= (19 + zoomnr);
    1adc:	302f 002c      	move.w 44(sp),d0
    1ae0:	906f 0002      	sub.w 2(sp),d0
    1ae4:	0640 ffed      	addi.w #-19,d0
    1ae8:	3f40 002c      	move.w d0,44(sp)
    shiftright--;
    1aec:	302f 0032      	move.w 50(sp),d0
    1af0:	5340           	subq.w #1,d0
    1af2:	3f40 0032      	move.w d0,50(sp)
  while( nextzoom > 22 * 16) {
    1af6:	0c6f 0160 002c 	cmpi.w #352,44(sp)
    1afc:	6ede           	bgt.s 1adc <Zoom_ZoomIntoPicture+0x48>
  } 
  //UWORD nextzoom = 352-28 + (zoomnr << 3);
  UWORD shifttoleft = 0;
    1afe:	426f 002a      	clr.w 42(sp)
  //WORD linesforzoom = 16;

  WORD ZoomHorizontalStart = 18 - zoomnr * 5;
    1b02:	322f 0002      	move.w 2(sp),d1
    1b06:	3001           	move.w d1,d0
    1b08:	d040           	add.w d0,d0
    1b0a:	d040           	add.w d0,d0
    1b0c:	d041           	add.w d1,d0
    1b0e:	4440           	neg.w d0
    1b10:	0640 0012      	addi.w #18,d0
    1b14:	3f40 0028      	move.w d0,40(sp)
    1b18:	601c           	bra.s 1b36 <Zoom_ZoomIntoPicture+0xa2>
  while( ZoomHorizontalStart < 0) {
      ZoomHorizontalStart += 1 + 18 + zoomnr;
    1b1a:	302f 0028      	move.w 40(sp),d0
    1b1e:	d06f 0002      	add.w 2(sp),d0
    1b22:	0640 0013      	addi.w #19,d0
    1b26:	3f40 0028      	move.w d0,40(sp)
      shifthoriz--;
    1b2a:	302f 0030      	move.w 48(sp),d0
    1b2e:	3200           	move.w d0,d1
    1b30:	5341           	subq.w #1,d1
    1b32:	3f41 0030      	move.w d1,48(sp)
  while( ZoomHorizontalStart < 0) {
    1b36:	4a6f 0028      	tst.w 40(sp)
    1b3a:	6dde           	blt.s 1b1a <Zoom_ZoomIntoPicture+0x86>
  } 

  for(int i=0;i<22;i++) {
    1b3c:	42af 0024      	clr.l 36(sp)
    1b40:	6000 02ca      	bra.w 1e0c <Zoom_ZoomIntoPicture+0x378>

    ZoomHorizontal = ZoomHorizontalStart;
    1b44:	33ef 0028 004d 	move.w 40(sp),4d2c6e <ZoomHorizontal>
    1b4a:	2c6e 

    WORD linesleft = 272;
    1b4c:	3f7c 0110 0022 	move.w #272,34(sp)
    UWORD *pos4source = source+ZMLINESIZE/2+ZMLINESIZE/2*shifthoriz*planes-2-i;
    1b52:	7000           	moveq #0,d0
    1b54:	302f 0030      	move.w 48(sp),d0
    1b58:	7200           	moveq #0,d1
    1b5a:	3217           	move.w (sp),d1
    1b5c:	2f01           	move.l d1,-(sp)
    1b5e:	2f00           	move.l d0,-(sp)
    1b60:	4eb9 0000 710c 	jsr 710c <__mulsi3>
    1b66:	508f           	addq.l #8,sp
    1b68:	2200           	move.l d0,d1
    1b6a:	2001           	move.l d1,d0
    1b6c:	d080           	add.l d0,d0
    1b6e:	d081           	add.l d1,d0
    1b70:	2200           	move.l d0,d1
    1b72:	e789           	lsl.l #3,d1
    1b74:	9280           	sub.l d0,d1
    1b76:	202f 0024      	move.l 36(sp),d0
    1b7a:	9280           	sub.l d0,d1
    1b7c:	2001           	move.l d1,d0
    1b7e:	0680 8000 0013 	addi.l #-2147483629,d0
    1b84:	d080           	add.l d0,d0
    1b86:	222f 0038      	move.l 56(sp),d1
    1b8a:	d280           	add.l d0,d1
    1b8c:	2f41 001e      	move.l d1,30(sp)
    UWORD *pos4dest = destination+ZMLINESIZE/2-2-i;
    1b90:	202f 0024      	move.l 36(sp),d0
    1b94:	7213           	moveq #19,d1
    1b96:	9280           	sub.l d0,d1
    1b98:	2001           	move.l d1,d0
    1b9a:	d081           	add.l d1,d0
    1b9c:	222f 003c      	move.l 60(sp),d1
    1ba0:	d280           	add.l d0,d1
    1ba2:	2f41 001a      	move.l d1,26(sp)
    
    UWORD onestep = ZMLINESIZE/2*planes;
    1ba6:	3017           	move.w (sp),d0
    1ba8:	c1fc 0015      	muls.w #21,d0
    1bac:	3f40 0018      	move.w d0,24(sp)
    if( startofword >= nextzoom) { // No vertical scalimg. Use normal copy
    1bb0:	7000           	moveq #0,d0
    1bb2:	302f 002e      	move.w 46(sp),d0
    1bb6:	306f 002c      	movea.w 44(sp),a0
    1bba:	b1c0           	cmpa.l d0,a0
    1bbc:	6e00 0106      	bgt.w 1cc4 <Zoom_ZoomIntoPicture+0x230>
      Init_Copy( shiftright);
    1bc0:	306f 0032      	movea.w 50(sp),a0
    1bc4:	2f08           	move.l a0,-(sp)
    1bc6:	4eba fe92      	jsr 1a5a <Init_Copy>(pc)
    1bca:	588f           	addq.l #4,sp
    1bcc:	6000 00ea      	bra.w 1cb8 <Zoom_ZoomIntoPicture+0x224>
              
      while(linesleft > 0) {
        if( linesleft >= ZoomHorizontal+1) {
    1bd0:	3039 004d 2c6e 	move.w 4d2c6e <ZoomHorizontal>,d0
    1bd6:	b06f 0022      	cmp.w 34(sp),d0
    1bda:	6c12           	bge.s 1bee <Zoom_ZoomIntoPicture+0x15a>
          linesleft -= ZoomHorizontal;
    1bdc:	322f 0022      	move.w 34(sp),d1
    1be0:	3039 004d 2c6e 	move.w 4d2c6e <ZoomHorizontal>,d0
    1be6:	9240           	sub.w d0,d1
    1be8:	3f41 0022      	move.w d1,34(sp)
    1bec:	600c           	bra.s 1bfa <Zoom_ZoomIntoPicture+0x166>
        } else {
          ZoomHorizontal = linesleft;
    1bee:	33ef 0022 004d 	move.w 34(sp),4d2c6e <ZoomHorizontal>
    1bf4:	2c6e 
          linesleft = 0;
    1bf6:	426f 0022      	clr.w 34(sp)
        } 
        UWORD size4blit = ZoomHorizontal*onestep; 
    1bfa:	3039 004d 2c6e 	move.w 4d2c6e <ZoomHorizontal>,d0
    1c00:	322f 0018      	move.w 24(sp),d1
    1c04:	c3c0           	muls.w d0,d1
    1c06:	3f41 000c      	move.w d1,12(sp)
        //Add aditional line
        if( linesleft>0) {
    1c0a:	4a6f 0022      	tst.w 34(sp)
    1c0e:	6f4c           	ble.s 1c5c <Zoom_ZoomIntoPicture+0x1c8>
          UWORD *tmpsource = pos4source + size4blit + shifttoleft;
    1c10:	7200           	moveq #0,d1
    1c12:	322f 000c      	move.w 12(sp),d1
    1c16:	7000           	moveq #0,d0
    1c18:	302f 002a      	move.w 42(sp),d0
    1c1c:	d081           	add.l d1,d0
    1c1e:	d080           	add.l d0,d0
    1c20:	222f 001e      	move.l 30(sp),d1
    1c24:	d280           	add.l d0,d1
    1c26:	2f41 0008      	move.l d1,8(sp)
          UWORD *tmpdest = pos4dest +  size4blit;
    1c2a:	7000           	moveq #0,d0
    1c2c:	302f 000c      	move.w 12(sp),d0
    1c30:	d080           	add.l d0,d0
    1c32:	222f 001a      	move.l 26(sp),d1
    1c36:	d280           	add.l d0,d1
    1c38:	2f41 0004      	move.l d1,4(sp)
          
          Zoom_CopyWord( tmpsource, tmpdest, planes);
    1c3c:	7000           	moveq #0,d0
    1c3e:	3017           	move.w (sp),d0
    1c40:	2f00           	move.l d0,-(sp)
    1c42:	2f2f 0008      	move.l 8(sp),-(sp)
    1c46:	2f2f 0010      	move.l 16(sp),-(sp)
    1c4a:	4eba f314      	jsr f60 <Zoom_CopyWord>(pc)
    1c4e:	4fef 000c      	lea 12(sp),sp
          linesleft--;
    1c52:	302f 0022      	move.w 34(sp),d0
    1c56:	5340           	subq.w #1,d0
    1c58:	3f40 0022      	move.w d0,34(sp)
        }
        Zoom_CopyWord( pos4source+shifttoleft, pos4dest, ZoomHorizontal*planes);
    1c5c:	3039 004d 2c6e 	move.w 4d2c6e <ZoomHorizontal>,d0
    1c62:	c1d7           	muls.w (sp),d0
    1c64:	7200           	moveq #0,d1
    1c66:	3200           	move.w d0,d1
    1c68:	7000           	moveq #0,d0
    1c6a:	302f 002a      	move.w 42(sp),d0
    1c6e:	d080           	add.l d0,d0
    1c70:	d0af 001e      	add.l 30(sp),d0
    1c74:	2f01           	move.l d1,-(sp)
    1c76:	2f2f 001e      	move.l 30(sp),-(sp)
    1c7a:	2f00           	move.l d0,-(sp)
    1c7c:	4eba f2e2      	jsr f60 <Zoom_CopyWord>(pc)
    1c80:	4fef 000c      	lea 12(sp),sp
        pos4source += size4blit;
    1c84:	7000           	moveq #0,d0
    1c86:	302f 000c      	move.w 12(sp),d0
    1c8a:	d080           	add.l d0,d0
    1c8c:	d1af 001e      	add.l d0,30(sp)
        pos4dest += size4blit + onestep; 
    1c90:	7200           	moveq #0,d1
    1c92:	322f 000c      	move.w 12(sp),d1
    1c96:	7000           	moveq #0,d0
    1c98:	302f 0018      	move.w 24(sp),d0
    1c9c:	d081           	add.l d1,d0
    1c9e:	d080           	add.l d0,d0
    1ca0:	d1af 001a      	add.l d0,26(sp)
        
        ZoomHorizontal = 18 - zoomnr + (zoomnr << 1);
    1ca4:	302f 0002      	move.w 2(sp),d0
    1ca8:	d040           	add.w d0,d0
    1caa:	906f 0002      	sub.w 2(sp),d0
    1cae:	0640 0012      	addi.w #18,d0
    1cb2:	33c0 004d 2c6e 	move.w d0,4d2c6e <ZoomHorizontal>
      while(linesleft > 0) {
    1cb8:	4a6f 0022      	tst.w 34(sp)
    1cbc:	6e00 ff12      	bgt.w 1bd0 <Zoom_ZoomIntoPicture+0x13c>
    1cc0:	6000 0140      	bra.w 1e02 <Zoom_ZoomIntoPicture+0x36e>
      }
    } else {  
      Init_ZoomBlit( startofword, nextzoom, shiftright);   
    1cc4:	326f 0032      	movea.w 50(sp),a1
    1cc8:	306f 002c      	movea.w 44(sp),a0
    1ccc:	7000           	moveq #0,d0
    1cce:	302f 002e      	move.w 46(sp),d0
    1cd2:	2f09           	move.l a1,-(sp)
    1cd4:	2f08           	move.l a0,-(sp)
    1cd6:	2f00           	move.l d0,-(sp)
    1cd8:	4eba fcdc      	jsr 19b6 <Init_ZoomBlit>(pc)
    1cdc:	4fef 000c      	lea 12(sp),sp
      nextzoom -= (19 + zoomnr);
    1ce0:	302f 002c      	move.w 44(sp),d0
    1ce4:	906f 0002      	sub.w 2(sp),d0
    1ce8:	0640 ffed      	addi.w #-19,d0
    1cec:	3f40 002c      	move.w d0,44(sp)
    1cf0:	6000 00ea      	bra.w 1ddc <Zoom_ZoomIntoPicture+0x348>
      while( linesleft > 0) {
        if( linesleft >= ZoomHorizontal+1) {
    1cf4:	3039 004d 2c6e 	move.w 4d2c6e <ZoomHorizontal>,d0
    1cfa:	b06f 0022      	cmp.w 34(sp),d0
    1cfe:	6c12           	bge.s 1d12 <Zoom_ZoomIntoPicture+0x27e>
          linesleft -= ZoomHorizontal;
    1d00:	322f 0022      	move.w 34(sp),d1
    1d04:	3039 004d 2c6e 	move.w 4d2c6e <ZoomHorizontal>,d0
    1d0a:	9240           	sub.w d0,d1
    1d0c:	3f41 0022      	move.w d1,34(sp)
    1d10:	600c           	bra.s 1d1e <Zoom_ZoomIntoPicture+0x28a>
        } else {
          ZoomHorizontal = linesleft;
    1d12:	33ef 0022 004d 	move.w 34(sp),4d2c6e <ZoomHorizontal>
    1d18:	2c6e 
          linesleft = 0;
    1d1a:	426f 0022      	clr.w 34(sp)
        }
        UWORD size4blit = ZoomHorizontal*onestep;
    1d1e:	3039 004d 2c6e 	move.w 4d2c6e <ZoomHorizontal>,d0
    1d24:	322f 0018      	move.w 24(sp),d1
    1d28:	c3c0           	muls.w d0,d1
    1d2a:	3f41 0016      	move.w d1,22(sp)
        //Add aditional line
        if( linesleft>0) {
    1d2e:	4a6f 0022      	tst.w 34(sp)
    1d32:	6f4c           	ble.s 1d80 <Zoom_ZoomIntoPicture+0x2ec>
          UWORD *tmpsource = pos4source + size4blit + shifttoleft;
    1d34:	7200           	moveq #0,d1
    1d36:	322f 0016      	move.w 22(sp),d1
    1d3a:	7000           	moveq #0,d0
    1d3c:	302f 002a      	move.w 42(sp),d0
    1d40:	d081           	add.l d1,d0
    1d42:	d080           	add.l d0,d0
    1d44:	222f 001e      	move.l 30(sp),d1
    1d48:	d280           	add.l d0,d1
    1d4a:	2f41 0012      	move.l d1,18(sp)
          UWORD *tmpdest = pos4dest + size4blit;
    1d4e:	7000           	moveq #0,d0
    1d50:	302f 0016      	move.w 22(sp),d0
    1d54:	d080           	add.l d0,d0
    1d56:	222f 001a      	move.l 26(sp),d1
    1d5a:	d280           	add.l d0,d1
    1d5c:	2f41 000e      	move.l d1,14(sp)
          
          Zoom_ZoomBlit( tmpsource, tmpdest, planes);
    1d60:	7000           	moveq #0,d0
    1d62:	3017           	move.w (sp),d0
    1d64:	2f00           	move.l d0,-(sp)
    1d66:	2f2f 0012      	move.l 18(sp),-(sp)
    1d6a:	2f2f 001a      	move.l 26(sp),-(sp)
    1d6e:	4eba f22e      	jsr f9e <Zoom_ZoomBlit>(pc)
    1d72:	4fef 000c      	lea 12(sp),sp
          linesleft--;
    1d76:	302f 0022      	move.w 34(sp),d0
    1d7a:	5340           	subq.w #1,d0
    1d7c:	3f40 0022      	move.w d0,34(sp)
        }
        Zoom_ZoomBlit( pos4source+shifttoleft, pos4dest, ZoomHorizontal*planes);
    1d80:	3039 004d 2c6e 	move.w 4d2c6e <ZoomHorizontal>,d0
    1d86:	c1d7           	muls.w (sp),d0
    1d88:	7200           	moveq #0,d1
    1d8a:	3200           	move.w d0,d1
    1d8c:	7000           	moveq #0,d0
    1d8e:	302f 002a      	move.w 42(sp),d0
    1d92:	d080           	add.l d0,d0
    1d94:	d0af 001e      	add.l 30(sp),d0
    1d98:	2f01           	move.l d1,-(sp)
    1d9a:	2f2f 001e      	move.l 30(sp),-(sp)
    1d9e:	2f00           	move.l d0,-(sp)
    1da0:	4eba f1fc      	jsr f9e <Zoom_ZoomBlit>(pc)
    1da4:	4fef 000c      	lea 12(sp),sp
        pos4source += size4blit;
    1da8:	7000           	moveq #0,d0
    1daa:	302f 0016      	move.w 22(sp),d0
    1dae:	d080           	add.l d0,d0
    1db0:	d1af 001e      	add.l d0,30(sp)
        pos4dest += size4blit + onestep;   
    1db4:	7200           	moveq #0,d1
    1db6:	322f 0016      	move.w 22(sp),d1
    1dba:	7000           	moveq #0,d0
    1dbc:	302f 0018      	move.w 24(sp),d0
    1dc0:	d081           	add.l d1,d0
    1dc2:	d080           	add.l d0,d0
    1dc4:	d1af 001a      	add.l d0,26(sp)
        ZoomHorizontal = 18 - zoomnr + (zoomnr << 1);
    1dc8:	302f 0002      	move.w 2(sp),d0
    1dcc:	d040           	add.w d0,d0
    1dce:	906f 0002      	sub.w 2(sp),d0
    1dd2:	0640 0012      	addi.w #18,d0
    1dd6:	33c0 004d 2c6e 	move.w d0,4d2c6e <ZoomHorizontal>
      while( linesleft > 0) {
    1ddc:	4a6f 0022      	tst.w 34(sp)
    1de0:	6e00 ff12      	bgt.w 1cf4 <Zoom_ZoomIntoPicture+0x260>
      }
      shiftright--;  
    1de4:	302f 0032      	move.w 50(sp),d0
    1de8:	5340           	subq.w #1,d0
    1dea:	3f40 0032      	move.w d0,50(sp)
      if(shiftright < 0) {
    1dee:	6a12           	bpl.s 1e02 <Zoom_ZoomIntoPicture+0x36e>
        shiftright += 16;
    1df0:	302f 0032      	move.w 50(sp),d0
    1df4:	0640 0010      	addi.w #16,d0
    1df8:	3f40 0032      	move.w d0,50(sp)
        shifttoleft = 1;
    1dfc:	3f7c 0001 002a 	move.w #1,42(sp)
      }
    }
    startofword -= 16;
    1e02:	066f fff0 002e 	addi.w #-16,46(sp)
  for(int i=0;i<22;i++) {
    1e08:	52af 0024      	addq.l #1,36(sp)
    1e0c:	7015           	moveq #21,d0
    1e0e:	b0af 0024      	cmp.l 36(sp),d0
    1e12:	6c00 fd30      	bge.w 1b44 <Zoom_ZoomIntoPicture+0xb0>
  }
}
    1e16:	4fef 0034      	lea 52(sp),sp
    1e1a:	4e75           	rts

00001e1c <Zoom_SetBplPointers>:

void Zoom_SetBplPointers( UWORD *buffer, ULONG *copper) {
    1e1c:	4fef ffb0      	lea -80(sp),sp
  //                   0  1  1   1   1   0   1   1    1    1    0    1    1    0    1    1
  //int zoomoffset[] = { 0, 0, 42, 42, 84, 84, 84, 126, 126, 168, 168, 168, 210, 210, 210, 332};
  //int zoomoffset[] = { 252, 210, 210, 210, 168, 168, 168, 126, 126, 84, 84, 84, 42, 42, 0, 0 };
  int zoomoffset[] = { 126, 105, 105, 105, 84, 84, 84, 63, 63, 42, 42, 42, 21, 21, 0, 0 };
    1e20:	204f           	movea.l sp,a0
    1e22:	223c 0000 7d28 	move.l #32040,d1
    1e28:	7040           	moveq #64,d0
    1e2a:	2f00           	move.l d0,-(sp)
    1e2c:	2f01           	move.l d1,-(sp)
    1e2e:	2f08           	move.l a0,-(sp)
    1e30:	4eba 4f7c      	jsr 6dae <memcpy>(pc)
    1e34:	4fef 000c      	lea 12(sp),sp

  ULONG plane2set = buffer + zoomoffset[Zoom_LevelOf102Zoom];//+1;
    1e38:	3039 004d 2c6a 	move.w 4d2c6a <Zoom_LevelOf102Zoom>,d0
    1e3e:	3000           	move.w d0,d0
    1e40:	0280 0000 ffff 	andi.l #65535,d0
    1e46:	d080           	add.l d0,d0
    1e48:	d080           	add.l d0,d0
    1e4a:	41ef 0050      	lea 80(sp),a0
    1e4e:	d1c0           	adda.l d0,a0
    1e50:	41e8 ffb0      	lea -80(a0),a0
    1e54:	2010           	move.l (a0),d0
    1e56:	d080           	add.l d0,d0
    1e58:	d0af 0054      	add.l 84(sp),d0
    1e5c:	2f40 004c      	move.l d0,76(sp)
  /*ULONG plane2set = buffer+1+( 8 - (Zoom_LevelOf102Zoom/2))
                                                         *ZMLINESIZE*ZMBPLDEPTH/4;*/
  UWORD *posofcopper = (UWORD *)copper + ZMCOPBPL1HIGH;
    1e60:	7072           	moveq #114,d0
    1e62:	d0af 0058      	add.l 88(sp),d0
    1e66:	2f40 0048      	move.l d0,72(sp)
  
  for(int i=0;i<ZMBPLDEPTH;i++) {
    1e6a:	42af 0044      	clr.l 68(sp)
    1e6e:	6036           	bra.s 1ea6 <Zoom_SetBplPointers+0x8a>
    UWORD highword = (ULONG)plane2set >> 16;
    1e70:	202f 004c      	move.l 76(sp),d0
    1e74:	4240           	clr.w d0
    1e76:	4840           	swap d0
    1e78:	3f40 0042      	move.w d0,66(sp)
    UWORD lowword = (ULONG)plane2set & 0xffff;
    1e7c:	3f6f 004e 0040 	move.w 78(sp),64(sp)
    *posofcopper = highword;
    1e82:	206f 0048      	movea.l 72(sp),a0
    1e86:	30af 0042      	move.w 66(sp),(a0)
    posofcopper += 2;
    1e8a:	58af 0048      	addq.l #4,72(sp)
    *posofcopper = lowword;
    1e8e:	206f 0048      	movea.l 72(sp),a0
    1e92:	30af 0040      	move.w 64(sp),(a0)
    posofcopper += 2;
    1e96:	58af 0048      	addq.l #4,72(sp)
    plane2set += 42*268; //Next plane
    1e9a:	06af 0000 2bf8 	addi.l #11256,76(sp)
    1ea0:	004c 
  for(int i=0;i<ZMBPLDEPTH;i++) {
    1ea2:	52af 0044      	addq.l #1,68(sp)
    1ea6:	7004           	moveq #4,d0
    1ea8:	b0af 0044      	cmp.l 68(sp),d0
    1eac:	6cc2           	bge.s 1e70 <Zoom_SetBplPointers+0x54>
  }
  
}
    1eae:	4fef 0050      	lea 80(sp),sp
    1eb2:	4e75           	rts

00001eb4 <Zoom_SwapBuffers>:

void Zoom_SwapBuffers( UWORD zoomlevel) {
    1eb4:	598f           	subq.l #4,sp
    1eb6:	2f02           	move.l d2,-(sp)
    1eb8:	202f 000c      	move.l 12(sp),d0
    1ebc:	3000           	move.w d0,d0
    1ebe:	3f40 0006      	move.w d0,6(sp)

  ViewBuffer = rawzoom + (42*268*5*zoomlevel);
    1ec2:	2439 0000 b8a0 	move.l b8a0 <rawzoom>,d2
    1ec8:	7000           	moveq #0,d0
    1eca:	302f 0006      	move.w 6(sp),d0
    1ece:	2f3c 0000 dbd8 	move.l #56280,-(sp)
    1ed4:	2f00           	move.l d0,-(sp)
    1ed6:	4eb9 0000 710c 	jsr 710c <__mulsi3>
    1edc:	508f           	addq.l #8,sp
    1ede:	d082           	add.l d2,d0
    1ee0:	23c0 004d 2c10 	move.l d0,4d2c10 <ViewBuffer>
  /*ULONG tmp = (ULONG) DrawBuffer;
  DrawBuffer = ViewBuffer;
  ViewBuffer = (ULONG *) tmp;*/
}
    1ee6:	241f           	move.l (sp)+,d2
    1ee8:	588f           	addq.l #4,sp
    1eea:	4e75           	rts

00001eec <Test_Zoom2>:
#include "zoomtest2.h"
#include "zoom.h"
#include "utils.h"
#include <string.h>

void Test_Zoom2() {
    1eec:	4fef ff00      	lea -256(sp),sp
    1ef0:	48e7 3002      	movem.l d2-d3/a6,-(sp)
  
  //Test Zoomlevel 1
  volatile ULONG *srcsmall = AllocMem( 80, MEMF_CHIP);
    1ef4:	7050           	moveq #80,d0
    1ef6:	2f40 00f0      	move.l d0,240(sp)
    1efa:	7002           	moveq #2,d0
    1efc:	2f40 00ec      	move.l d0,236(sp)
    1f00:	2039 004d 2c20 	move.l 4d2c20 <SysBase>,d0
    1f06:	2c40           	movea.l d0,a6
    1f08:	202f 00f0      	move.l 240(sp),d0
    1f0c:	222f 00ec      	move.l 236(sp),d1
    1f10:	4eae ff3a      	jsr -198(a6)
    1f14:	2f40 00e8      	move.l d0,232(sp)
    1f18:	202f 00e8      	move.l 232(sp),d0
    1f1c:	2f40 00e4      	move.l d0,228(sp)
  if( srcsmall == 0) {
    1f20:	6646           	bne.s 1f68 <Test_Zoom2+0x7c>
    Write( Output(), "Test_Zoom2: Cannot alloc mem for srcsmall\n", 42);
    1f22:	2039 004d 2c28 	move.l 4d2c28 <DOSBase>,d0
    1f28:	2c40           	movea.l d0,a6
    1f2a:	4eae ffc4      	jsr -60(a6)
    1f2e:	2f40 001c      	move.l d0,28(sp)
    1f32:	202f 001c      	move.l 28(sp),d0
    1f36:	2f40 0018      	move.l d0,24(sp)
    1f3a:	2f7c 0000 7d68 	move.l #32104,20(sp)
    1f40:	0014 
    1f42:	702a           	moveq #42,d0
    1f44:	2f40 0010      	move.l d0,16(sp)
    1f48:	2039 004d 2c28 	move.l 4d2c28 <DOSBase>,d0
    1f4e:	2c40           	movea.l d0,a6
    1f50:	222f 0018      	move.l 24(sp),d1
    1f54:	242f 0014      	move.l 20(sp),d2
    1f58:	262f 0010      	move.l 16(sp),d3
    1f5c:	4eae ffd0      	jsr -48(a6)
    1f60:	2f40 000c      	move.l d0,12(sp)
    1f64:	6000 0560      	bra.w 24c6 <Test_Zoom2+0x5da>
    return;
  }
  Utils_FillLong(srcsmall, 0xaaaaaaaa, 2, 10, 0);
    1f68:	42a7           	clr.l -(sp)
    1f6a:	4878 000a      	pea a <_start+0xa>
    1f6e:	4878 0002      	pea 2 <_start+0x2>
    1f72:	2f3c aaaa aaaa 	move.l #-1431655766,-(sp)
    1f78:	2f2f 00f4      	move.l 244(sp),-(sp)
    1f7c:	4eba e29e      	jsr 21c <Utils_FillLong>(pc)
    1f80:	4fef 0014      	lea 20(sp),sp

  volatile ULONG *srcbig = AllocMem( 160, MEMF_CHIP);
    1f84:	2f7c 0000 00a0 	move.l #160,224(sp)
    1f8a:	00e0 
    1f8c:	7002           	moveq #2,d0
    1f8e:	2f40 00dc      	move.l d0,220(sp)
    1f92:	2039 004d 2c20 	move.l 4d2c20 <SysBase>,d0
    1f98:	2c40           	movea.l d0,a6
    1f9a:	202f 00e0      	move.l 224(sp),d0
    1f9e:	222f 00dc      	move.l 220(sp),d1
    1fa2:	4eae ff3a      	jsr -198(a6)
    1fa6:	2f40 00d8      	move.l d0,216(sp)
    1faa:	202f 00d8      	move.l 216(sp),d0
    1fae:	2f40 00d4      	move.l d0,212(sp)
    if( srcbig == 0) {
    1fb2:	6646           	bne.s 1ffa <Test_Zoom2+0x10e>
    Write( Output(), "Test_Zoom2: Cannot alloc mem for srcbig\n", 40);
    1fb4:	2039 004d 2c28 	move.l 4d2c28 <DOSBase>,d0
    1fba:	2c40           	movea.l d0,a6
    1fbc:	4eae ffc4      	jsr -60(a6)
    1fc0:	2f40 0030      	move.l d0,48(sp)
    1fc4:	202f 0030      	move.l 48(sp),d0
    1fc8:	2f40 002c      	move.l d0,44(sp)
    1fcc:	2f7c 0000 7d93 	move.l #32147,40(sp)
    1fd2:	0028 
    1fd4:	7028           	moveq #40,d0
    1fd6:	2f40 0024      	move.l d0,36(sp)
    1fda:	2039 004d 2c28 	move.l 4d2c28 <DOSBase>,d0
    1fe0:	2c40           	movea.l d0,a6
    1fe2:	222f 002c      	move.l 44(sp),d1
    1fe6:	242f 0028      	move.l 40(sp),d2
    1fea:	262f 0024      	move.l 36(sp),d3
    1fee:	4eae ffd0      	jsr -48(a6)
    1ff2:	2f40 0020      	move.l d0,32(sp)
    1ff6:	6000 04ce      	bra.w 24c6 <Test_Zoom2+0x5da>
    return;
  }
  Utils_FillLong( srcbig, 0x55555555, 2, 20, 0);
    1ffa:	42a7           	clr.l -(sp)
    1ffc:	4878 0014      	pea 14 <_start+0x14>
    2000:	4878 0002      	pea 2 <_start+0x2>
    2004:	2f3c 5555 5555 	move.l #1431655765,-(sp)
    200a:	2f2f 00e4      	move.l 228(sp),-(sp)
    200e:	4eba e20c      	jsr 21c <Utils_FillLong>(pc)
    2012:	4fef 0014      	lea 20(sp),sp

  volatile ULONG *target = AllocMem( 168, MEMF_CHIP);
    2016:	2f7c 0000 00a8 	move.l #168,208(sp)
    201c:	00d0 
    201e:	7002           	moveq #2,d0
    2020:	2f40 00cc      	move.l d0,204(sp)
    2024:	2039 004d 2c20 	move.l 4d2c20 <SysBase>,d0
    202a:	2c40           	movea.l d0,a6
    202c:	202f 00d0      	move.l 208(sp),d0
    2030:	222f 00cc      	move.l 204(sp),d1
    2034:	4eae ff3a      	jsr -198(a6)
    2038:	2f40 00c8      	move.l d0,200(sp)
    203c:	202f 00c8      	move.l 200(sp),d0
    2040:	2f40 00c4      	move.l d0,196(sp)
  if( target == 0) {
    2044:	6646           	bne.s 208c <Test_Zoom2+0x1a0>
    Write( Output(), "Test_Zoom2: Cannot alloc mem for target\n", 40);
    2046:	2039 004d 2c28 	move.l 4d2c28 <DOSBase>,d0
    204c:	2c40           	movea.l d0,a6
    204e:	4eae ffc4      	jsr -60(a6)
    2052:	2f40 0044      	move.l d0,68(sp)
    2056:	202f 0044      	move.l 68(sp),d0
    205a:	2f40 0040      	move.l d0,64(sp)
    205e:	2f7c 0000 7dbc 	move.l #32188,60(sp)
    2064:	003c 
    2066:	7028           	moveq #40,d0
    2068:	2f40 0038      	move.l d0,56(sp)
    206c:	2039 004d 2c28 	move.l 4d2c28 <DOSBase>,d0
    2072:	2c40           	movea.l d0,a6
    2074:	222f 0040      	move.l 64(sp),d1
    2078:	242f 003c      	move.l 60(sp),d2
    207c:	262f 0038      	move.l 56(sp),d3
    2080:	4eae ffd0      	jsr -48(a6)
    2084:	2f40 0034      	move.l d0,52(sp)
    2088:	6000 043c      	bra.w 24c6 <Test_Zoom2+0x5da>
    return;
  }
  WaitBlt();
    208c:	4eba e026      	jsr b4 <WaitBlt>(pc)
  hw->bltafwm = 0xffff;
    2090:	2079 004d 2c1c 	movea.l 4d2c1c <hw>,a0
    2096:	317c ffff 0044 	move.w #-1,68(a0)
  hw->bltalwm = 0xffff;
    209c:	2079 004d 2c1c 	movea.l 4d2c1c <hw>,a0
    20a2:	317c ffff 0046 	move.w #-1,70(a0)
  hw->bltdmod = 38;
    20a8:	2079 004d 2c1c 	movea.l 4d2c1c <hw>,a0
    20ae:	317c 0026 0066 	move.w #38,102(a0)
  hw->bltcon1 = 1 << 12; //Shift src big
    20b4:	2079 004d 2c1c 	movea.l 4d2c1c <hw>,a0
    20ba:	317c 1000 0042 	move.w #4096,66(a0)
  hw->bltcon0 = 0xde4; //Chanell settings and Shift src small
    20c0:	2079 004d 2c1c 	movea.l 4d2c1c <hw>,a0
    20c6:	317c 0de4 0040 	move.w #3556,64(a0)
  hw->bltcdat = 0x8000; //Show channel small if 1 else channel big
    20cc:	2079 004d 2c1c 	movea.l 4d2c1c <hw>,a0
    20d2:	317c 8000 0070 	move.w #-32768,112(a0)
  //srcbig-shift   0010 1010 1010 1010
  //srcsmall:      1010 1010 1010 1010  
  //pattern:       sbbb bbbb bbbb bbbb
  //result:        1010 1010 1010 1010

  Zoom_ZoomBlit2( srcsmall, srcbig, target, 2, 38,78, 1);
    20d8:	4878 0001      	pea 1 <_start+0x1>
    20dc:	4878 004e      	pea 4e <_start+0x4e>
    20e0:	4878 0026      	pea 26 <_start+0x26>
    20e4:	4878 0002      	pea 2 <_start+0x2>
    20e8:	2f2f 00d4      	move.l 212(sp),-(sp)
    20ec:	2f2f 00e8      	move.l 232(sp),-(sp)
    20f0:	2f2f 00fc      	move.l 252(sp),-(sp)
    20f4:	4eba ef0c      	jsr 1002 <Zoom_ZoomBlit2>(pc)
    20f8:	4fef 001c      	lea 28(sp),sp
  UWORD *tmp = (UWORD *)target;
    20fc:	2f6f 00c4 0108 	move.l 196(sp),264(sp)
  WaitBlit();
    2102:	2039 004d 2c2c 	move.l 4d2c2c <GfxBase>,d0
    2108:	2c40           	movea.l d0,a6
    210a:	4eae ff1c      	jsr -228(a6)
  for(int i=0;i<2;i++)
    210e:	42af 0104      	clr.l 260(sp)
    2112:	605c           	bra.s 2170 <Test_Zoom2+0x284>
    if( *tmp != 0xaaaa ) {
    2114:	206f 0108      	movea.l 264(sp),a0
    2118:	3010           	move.w (a0),d0
    211a:	0c40 aaaa      	cmpi.w #-21846,d0
    211e:	6746           	beq.s 2166 <Test_Zoom2+0x27a>
      Write( Output(), "Test_Zoom2: Test for Zoomlevel 1 failed\n", 40);
    2120:	2039 004d 2c28 	move.l 4d2c28 <DOSBase>,d0
    2126:	2c40           	movea.l d0,a6
    2128:	4eae ffc4      	jsr -60(a6)
    212c:	2f40 0058      	move.l d0,88(sp)
    2130:	202f 0058      	move.l 88(sp),d0
    2134:	2f40 0054      	move.l d0,84(sp)
    2138:	2f7c 0000 7de5 	move.l #32229,80(sp)
    213e:	0050 
    2140:	7028           	moveq #40,d0
    2142:	2f40 004c      	move.l d0,76(sp)
    2146:	2039 004d 2c28 	move.l 4d2c28 <DOSBase>,d0
    214c:	2c40           	movea.l d0,a6
    214e:	222f 0054      	move.l 84(sp),d1
    2152:	242f 0050      	move.l 80(sp),d2
    2156:	262f 004c      	move.l 76(sp),d3
    215a:	4eae ffd0      	jsr -48(a6)
    215e:	2f40 0048      	move.l d0,72(sp)
    2162:	6000 0362      	bra.w 24c6 <Test_Zoom2+0x5da>
      return;
    } else tmp += 20;
    2166:	7028           	moveq #40,d0
    2168:	d1af 0108      	add.l d0,264(sp)
  for(int i=0;i<2;i++)
    216c:	52af 0104      	addq.l #1,260(sp)
    2170:	7001           	moveq #1,d0
    2172:	b0af 0104      	cmp.l 260(sp),d0
    2176:	6c9c           	bge.s 2114 <Test_Zoom2+0x228>
  //srcbig-shift   0001 0101 0101 0101
  //srcsmall:      1010 1010 1010 1010  
  //pattern:       ssbb bbbb bbbb bbbb
  //result:        1001 0101 0101 0101

  hw->bltcon1 = 2 << 12; //Shift src big
    2178:	2079 004d 2c1c 	movea.l 4d2c1c <hw>,a0
    217e:	317c 2000 0042 	move.w #8192,66(a0)
  hw->bltcdat = 0xc000; //Show channel small if 1 else channel big
    2184:	2079 004d 2c1c 	movea.l 4d2c1c <hw>,a0
    218a:	317c c000 0070 	move.w #-16384,112(a0)
  Zoom_ZoomBlit2( srcsmall, srcbig, target, 2, 38,78, 1);
    2190:	4878 0001      	pea 1 <_start+0x1>
    2194:	4878 004e      	pea 4e <_start+0x4e>
    2198:	4878 0026      	pea 26 <_start+0x26>
    219c:	4878 0002      	pea 2 <_start+0x2>
    21a0:	2f2f 00d4      	move.l 212(sp),-(sp)
    21a4:	2f2f 00e8      	move.l 232(sp),-(sp)
    21a8:	2f2f 00fc      	move.l 252(sp),-(sp)
    21ac:	4eba ee54      	jsr 1002 <Zoom_ZoomBlit2>(pc)
    21b0:	4fef 001c      	lea 28(sp),sp
  tmp = (UWORD *)target;
    21b4:	2f6f 00c4 0108 	move.l 196(sp),264(sp)
  WaitBlit();
    21ba:	2039 004d 2c2c 	move.l 4d2c2c <GfxBase>,d0
    21c0:	2c40           	movea.l d0,a6
    21c2:	4eae ff1c      	jsr -228(a6)
  for(int i=0;i<2;i++)
    21c6:	42af 0100      	clr.l 256(sp)
    21ca:	605c           	bra.s 2228 <Test_Zoom2+0x33c>
    if( *tmp != 0x9555 ) {
    21cc:	206f 0108      	movea.l 264(sp),a0
    21d0:	3010           	move.w (a0),d0
    21d2:	0c40 9555      	cmpi.w #-27307,d0
    21d6:	6746           	beq.s 221e <Test_Zoom2+0x332>
      Write( Output(), "Test_Zoom2: Test for Zoomlevel 2 failed\n", 40);
    21d8:	2039 004d 2c28 	move.l 4d2c28 <DOSBase>,d0
    21de:	2c40           	movea.l d0,a6
    21e0:	4eae ffc4      	jsr -60(a6)
    21e4:	2f40 006c      	move.l d0,108(sp)
    21e8:	202f 006c      	move.l 108(sp),d0
    21ec:	2f40 0068      	move.l d0,104(sp)
    21f0:	2f7c 0000 7e0e 	move.l #32270,100(sp)
    21f6:	0064 
    21f8:	7028           	moveq #40,d0
    21fa:	2f40 0060      	move.l d0,96(sp)
    21fe:	2039 004d 2c28 	move.l 4d2c28 <DOSBase>,d0
    2204:	2c40           	movea.l d0,a6
    2206:	222f 0068      	move.l 104(sp),d1
    220a:	242f 0064      	move.l 100(sp),d2
    220e:	262f 0060      	move.l 96(sp),d3
    2212:	4eae ffd0      	jsr -48(a6)
    2216:	2f40 005c      	move.l d0,92(sp)
    221a:	6000 02aa      	bra.w 24c6 <Test_Zoom2+0x5da>
      return;
    } else tmp += 20;
    221e:	7028           	moveq #40,d0
    2220:	d1af 0108      	add.l d0,264(sp)
  for(int i=0;i<2;i++)
    2224:	52af 0100      	addq.l #1,256(sp)
    2228:	7001           	moveq #1,d0
    222a:	b0af 0100      	cmp.l 256(sp),d0
    222e:	6c9c           	bge.s 21cc <Test_Zoom2+0x2e0>
  //srcbig-shift   0000 1010 1010 1010
  //srcsmall:      1010 1010 1010 1010  
  //pattern:       sssb bbbb bbbb bbbb
  //result:        1010 1010 1010 1010

  hw->bltcon1 = 3 << 12; //Shift src big
    2230:	2079 004d 2c1c 	movea.l 4d2c1c <hw>,a0
    2236:	317c 3000 0042 	move.w #12288,66(a0)
  hw->bltcdat = 0xe000; //Show channel small if 1 else channel big
    223c:	2079 004d 2c1c 	movea.l 4d2c1c <hw>,a0
    2242:	317c e000 0070 	move.w #-8192,112(a0)
  Zoom_ZoomBlit2( srcsmall, srcbig, target, 2, 38,78, 1);
    2248:	4878 0001      	pea 1 <_start+0x1>
    224c:	4878 004e      	pea 4e <_start+0x4e>
    2250:	4878 0026      	pea 26 <_start+0x26>
    2254:	4878 0002      	pea 2 <_start+0x2>
    2258:	2f2f 00d4      	move.l 212(sp),-(sp)
    225c:	2f2f 00e8      	move.l 232(sp),-(sp)
    2260:	2f2f 00fc      	move.l 252(sp),-(sp)
    2264:	4eba ed9c      	jsr 1002 <Zoom_ZoomBlit2>(pc)
    2268:	4fef 001c      	lea 28(sp),sp
  tmp = (UWORD *)target;
    226c:	2f6f 00c4 0108 	move.l 196(sp),264(sp)
  WaitBlit();
    2272:	2039 004d 2c2c 	move.l 4d2c2c <GfxBase>,d0
    2278:	2c40           	movea.l d0,a6
    227a:	4eae ff1c      	jsr -228(a6)
  for(int i=0;i<2;i++)
    227e:	42af 00fc      	clr.l 252(sp)
    2282:	605c           	bra.s 22e0 <Test_Zoom2+0x3f4>
    if( *tmp != 0xaaaa ) {
    2284:	206f 0108      	movea.l 264(sp),a0
    2288:	3010           	move.w (a0),d0
    228a:	0c40 aaaa      	cmpi.w #-21846,d0
    228e:	6746           	beq.s 22d6 <Test_Zoom2+0x3ea>
      Write( Output(), "Test_Zoom2: Test for Zoomlevel 3 failed\n", 40);
    2290:	2039 004d 2c28 	move.l 4d2c28 <DOSBase>,d0
    2296:	2c40           	movea.l d0,a6
    2298:	4eae ffc4      	jsr -60(a6)
    229c:	2f40 0080      	move.l d0,128(sp)
    22a0:	202f 0080      	move.l 128(sp),d0
    22a4:	2f40 007c      	move.l d0,124(sp)
    22a8:	2f7c 0000 7e37 	move.l #32311,120(sp)
    22ae:	0078 
    22b0:	7028           	moveq #40,d0
    22b2:	2f40 0074      	move.l d0,116(sp)
    22b6:	2039 004d 2c28 	move.l 4d2c28 <DOSBase>,d0
    22bc:	2c40           	movea.l d0,a6
    22be:	222f 007c      	move.l 124(sp),d1
    22c2:	242f 0078      	move.l 120(sp),d2
    22c6:	262f 0074      	move.l 116(sp),d3
    22ca:	4eae ffd0      	jsr -48(a6)
    22ce:	2f40 0070      	move.l d0,112(sp)
    22d2:	6000 01f2      	bra.w 24c6 <Test_Zoom2+0x5da>
      return;
    } else tmp += 20;  
    22d6:	7028           	moveq #40,d0
    22d8:	d1af 0108      	add.l d0,264(sp)
  for(int i=0;i<2;i++)
    22dc:	52af 00fc      	addq.l #1,252(sp)
    22e0:	7001           	moveq #1,d0
    22e2:	b0af 00fc      	cmp.l 252(sp),d0
    22e6:	6c9c           	bge.s 2284 <Test_Zoom2+0x398>
  //srcbig-shift   0000 1010 1010 1010
  //srcsmall:      1010 1010 1010 1010  
  //pattern:       sssb bbbb bbbb bbbb
  //result:        1010 1010 1010 1010

  hw->bltcon1 = 3 << 12; //Shift src big
    22e8:	2079 004d 2c1c 	movea.l 4d2c1c <hw>,a0
    22ee:	317c 3000 0042 	move.w #12288,66(a0)
  hw->bltcdat = 0xe000; //Show channel small if 1 else channel big
    22f4:	2079 004d 2c1c 	movea.l 4d2c1c <hw>,a0
    22fa:	317c e000 0070 	move.w #-8192,112(a0)

  Zoom_ZoomBlit2( srcsmall, srcbig, target, 2, 38,78, 1);
    2300:	4878 0001      	pea 1 <_start+0x1>
    2304:	4878 004e      	pea 4e <_start+0x4e>
    2308:	4878 0026      	pea 26 <_start+0x26>
    230c:	4878 0002      	pea 2 <_start+0x2>
    2310:	2f2f 00d4      	move.l 212(sp),-(sp)
    2314:	2f2f 00e8      	move.l 232(sp),-(sp)
    2318:	2f2f 00fc      	move.l 252(sp),-(sp)
    231c:	4eba ece4      	jsr 1002 <Zoom_ZoomBlit2>(pc)
    2320:	4fef 001c      	lea 28(sp),sp
  tmp = (UWORD *)target;
    2324:	2f6f 00c4 0108 	move.l 196(sp),264(sp)
  WaitBlit();
    232a:	2039 004d 2c2c 	move.l 4d2c2c <GfxBase>,d0
    2330:	2c40           	movea.l d0,a6
    2332:	4eae ff1c      	jsr -228(a6)
  for(int i=0;i<2;i++)
    2336:	42af 00f8      	clr.l 248(sp)
    233a:	605c           	bra.s 2398 <Test_Zoom2+0x4ac>
    if( *tmp != 0xaaaa ) {
    233c:	206f 0108      	movea.l 264(sp),a0
    2340:	3010           	move.w (a0),d0
    2342:	0c40 aaaa      	cmpi.w #-21846,d0
    2346:	6746           	beq.s 238e <Test_Zoom2+0x4a2>
      Write( Output(), "Test_Zoom2: Test for Zoomlevel 3 failed\n", 40);
    2348:	2039 004d 2c28 	move.l 4d2c28 <DOSBase>,d0
    234e:	2c40           	movea.l d0,a6
    2350:	4eae ffc4      	jsr -60(a6)
    2354:	2f40 0094      	move.l d0,148(sp)
    2358:	202f 0094      	move.l 148(sp),d0
    235c:	2f40 0090      	move.l d0,144(sp)
    2360:	2f7c 0000 7e37 	move.l #32311,140(sp)
    2366:	008c 
    2368:	7028           	moveq #40,d0
    236a:	2f40 0088      	move.l d0,136(sp)
    236e:	2039 004d 2c28 	move.l 4d2c28 <DOSBase>,d0
    2374:	2c40           	movea.l d0,a6
    2376:	222f 0090      	move.l 144(sp),d1
    237a:	242f 008c      	move.l 140(sp),d2
    237e:	262f 0088      	move.l 136(sp),d3
    2382:	4eae ffd0      	jsr -48(a6)
    2386:	2f40 0084      	move.l d0,132(sp)
    238a:	6000 013a      	bra.w 24c6 <Test_Zoom2+0x5da>
      return;
    } else tmp += 20;  
    238e:	7028           	moveq #40,d0
    2390:	d1af 0108      	add.l d0,264(sp)
  for(int i=0;i<2;i++)
    2394:	52af 00f8      	addq.l #1,248(sp)
    2398:	7001           	moveq #1,d0
    239a:	b0af 00f8      	cmp.l 248(sp),d0
    239e:	6c9c           	bge.s 233c <Test_Zoom2+0x450>
  //srcsmall:            1010 1010 1010 1010
  //srcsmall-shift:      0101 0101 0101 0101
  //pattern:             sssb bbbb bbbb bbbb
  //result:              0100 1010 1010 1010

  hw->bltcon1 = 3 << 12; //Shift src big
    23a0:	2079 004d 2c1c 	movea.l 4d2c1c <hw>,a0
    23a6:	317c 3000 0042 	move.w #12288,66(a0)
  hw->bltcdat = 0xe000; //Show channel small if 1 else channel big
    23ac:	2079 004d 2c1c 	movea.l 4d2c1c <hw>,a0
    23b2:	317c e000 0070 	move.w #-8192,112(a0)
  hw->bltcon0 = 0xde4 + (1 << 12); //Chanell settings and Shift src small
    23b8:	2079 004d 2c1c 	movea.l 4d2c1c <hw>,a0
    23be:	317c 1de4 0040 	move.w #7652,64(a0)
 
  Zoom_ZoomBlit2( srcsmall, srcbig, target, 2, 38,78, 1);
    23c4:	4878 0001      	pea 1 <_start+0x1>
    23c8:	4878 004e      	pea 4e <_start+0x4e>
    23cc:	4878 0026      	pea 26 <_start+0x26>
    23d0:	4878 0002      	pea 2 <_start+0x2>
    23d4:	2f2f 00d4      	move.l 212(sp),-(sp)
    23d8:	2f2f 00e8      	move.l 232(sp),-(sp)
    23dc:	2f2f 00fc      	move.l 252(sp),-(sp)
    23e0:	4eba ec20      	jsr 1002 <Zoom_ZoomBlit2>(pc)
    23e4:	4fef 001c      	lea 28(sp),sp
  tmp = (UWORD *)target;
    23e8:	2f6f 00c4 0108 	move.l 196(sp),264(sp)
  WaitBlit();
    23ee:	2039 004d 2c2c 	move.l 4d2c2c <GfxBase>,d0
    23f4:	2c40           	movea.l d0,a6
    23f6:	4eae ff1c      	jsr -228(a6)
  for(int i=0;i<2;i++)
    23fa:	42af 00f4      	clr.l 244(sp)
    23fe:	605a           	bra.s 245a <Test_Zoom2+0x56e>
    if( *tmp != 0x4aaa ) {
    2400:	206f 0108      	movea.l 264(sp),a0
    2404:	3010           	move.w (a0),d0
    2406:	0c40 4aaa      	cmpi.w #19114,d0
    240a:	6744           	beq.s 2450 <Test_Zoom2+0x564>
      Write( Output(), "Test_Zoom2: Test for shifting a failed\n", 39);
    240c:	2039 004d 2c28 	move.l 4d2c28 <DOSBase>,d0
    2412:	2c40           	movea.l d0,a6
    2414:	4eae ffc4      	jsr -60(a6)
    2418:	2f40 00a8      	move.l d0,168(sp)
    241c:	202f 00a8      	move.l 168(sp),d0
    2420:	2f40 00a4      	move.l d0,164(sp)
    2424:	2f7c 0000 7e60 	move.l #32352,160(sp)
    242a:	00a0 
    242c:	7027           	moveq #39,d0
    242e:	2f40 009c      	move.l d0,156(sp)
    2432:	2039 004d 2c28 	move.l 4d2c28 <DOSBase>,d0
    2438:	2c40           	movea.l d0,a6
    243a:	222f 00a4      	move.l 164(sp),d1
    243e:	242f 00a0      	move.l 160(sp),d2
    2442:	262f 009c      	move.l 156(sp),d3
    2446:	4eae ffd0      	jsr -48(a6)
    244a:	2f40 0098      	move.l d0,152(sp)
    244e:	6076           	bra.s 24c6 <Test_Zoom2+0x5da>
      return;
    } else tmp += 20;  
    2450:	7028           	moveq #40,d0
    2452:	d1af 0108      	add.l d0,264(sp)
  for(int i=0;i<2;i++)
    2456:	52af 00f4      	addq.l #1,244(sp)
    245a:	7001           	moveq #1,d0
    245c:	b0af 00f4      	cmp.l 244(sp),d0
    2460:	6c9e           	bge.s 2400 <Test_Zoom2+0x514>

  FreeMem( srcsmall, 80);
    2462:	2f6f 00e4 00c0 	move.l 228(sp),192(sp)
    2468:	7050           	moveq #80,d0
    246a:	2f40 00bc      	move.l d0,188(sp)
    246e:	2039 004d 2c20 	move.l 4d2c20 <SysBase>,d0
    2474:	2c40           	movea.l d0,a6
    2476:	226f 00c0      	movea.l 192(sp),a1
    247a:	202f 00bc      	move.l 188(sp),d0
    247e:	4eae ff2e      	jsr -210(a6)
  FreeMem( srcbig, 160);
    2482:	2f6f 00d4 00b8 	move.l 212(sp),184(sp)
    2488:	2f7c 0000 00a0 	move.l #160,180(sp)
    248e:	00b4 
    2490:	2039 004d 2c20 	move.l 4d2c20 <SysBase>,d0
    2496:	2c40           	movea.l d0,a6
    2498:	226f 00b8      	movea.l 184(sp),a1
    249c:	202f 00b4      	move.l 180(sp),d0
    24a0:	4eae ff2e      	jsr -210(a6)
  FreeMem( target, 168);
    24a4:	2f6f 00c4 00b0 	move.l 196(sp),176(sp)
    24aa:	2f7c 0000 00a8 	move.l #168,172(sp)
    24b0:	00ac 
    24b2:	2039 004d 2c20 	move.l 4d2c20 <SysBase>,d0
    24b8:	2c40           	movea.l d0,a6
    24ba:	226f 00b0      	movea.l 176(sp),a1
    24be:	202f 00ac      	move.l 172(sp),d0
    24c2:	4eae ff2e      	jsr -210(a6)
    24c6:	4cdf 400c      	movem.l (sp)+,d2-d3/a6
    24ca:	4fef 0100      	lea 256(sp),sp
    24ce:	4e75           	rts

000024d0 <ClBuild>:
#include "utils.h"




ULONG * ClBuild() {
    24d0:	4fef ffc4      	lea -60(sp),sp
    24d4:	48e7 3002      	movem.l d2-d3/a6,-(sp)
  ULONG *retval = AllocMem(  33*4, MEMF_CHIP);
    24d8:	2f7c 0000 0084 	move.l #132,48(sp)
    24de:	0030 
    24e0:	7002           	moveq #2,d0
    24e2:	2f40 002c      	move.l d0,44(sp)
    24e6:	2039 004d 2c20 	move.l 4d2c20 <SysBase>,d0
    24ec:	2c40           	movea.l d0,a6
    24ee:	202f 0030      	move.l 48(sp),d0
    24f2:	222f 002c      	move.l 44(sp),d1
    24f6:	4eae ff3a      	jsr -198(a6)
    24fa:	2f40 0028      	move.l d0,40(sp)
    24fe:	202f 0028      	move.l 40(sp),d0
    2502:	2f40 0024      	move.l d0,36(sp)
  if( retval == 0) {
    2506:	6658           	bne.s 2560 <ClBuild+0x90>
    Write( Output(), "Allocation of Ram for Copper failed.\n", 40);
    2508:	2039 004d 2c28 	move.l 4d2c28 <DOSBase>,d0
    250e:	2c40           	movea.l d0,a6
    2510:	4eae ffc4      	jsr -60(a6)
    2514:	2f40 0020      	move.l d0,32(sp)
    2518:	202f 0020      	move.l 32(sp),d0
    251c:	2f40 001c      	move.l d0,28(sp)
    2520:	2f7c 0000 7cf3 	move.l #31987,24(sp)
    2526:	0018 
    2528:	7228           	moveq #40,d1
    252a:	2f41 0014      	move.l d1,20(sp)
    252e:	2039 004d 2c28 	move.l 4d2c28 <DOSBase>,d0
    2534:	2c40           	movea.l d0,a6
    2536:	222f 001c      	move.l 28(sp),d1
    253a:	242f 0018      	move.l 24(sp),d2
    253e:	262f 0014      	move.l 20(sp),d3
    2542:	4eae ffd0      	jsr -48(a6)
    2546:	2f40 0010      	move.l d0,16(sp)
    Exit(1);
    254a:	7401           	moveq #1,d2
    254c:	2f42 000c      	move.l d2,12(sp)
    2550:	2039 004d 2c28 	move.l 4d2c28 <DOSBase>,d0
    2556:	2c40           	movea.l d0,a6
    2558:	222f 000c      	move.l 12(sp),d1
    255c:	4eae ff70      	jsr -144(a6)
  }
    
  ULONG *cl = retval;
    2560:	2f6f 0024 0044 	move.l 36(sp),68(sp)
  //clinstruction = DrawCopper;
  ULONG *clpartinstruction;
  clpartinstruction = ClsSprites;
    2566:	2f7c 0000 a68c 	move.l #42636,64(sp)
    256c:	0040 
  for(int i=0; i<16;i++)
    256e:	42af 003c      	clr.l 60(sp)
    2572:	6024           	bra.s 2598 <ClBuild+0xc8>
    *cl++ = *clpartinstruction++;
    2574:	222f 0040      	move.l 64(sp),d1
    2578:	2001           	move.l d1,d0
    257a:	5880           	addq.l #4,d0
    257c:	2f40 0040      	move.l d0,64(sp)
    2580:	202f 0044      	move.l 68(sp),d0
    2584:	2400           	move.l d0,d2
    2586:	5882           	addq.l #4,d2
    2588:	2f42 0044      	move.l d2,68(sp)
    258c:	2041           	movea.l d1,a0
    258e:	2210           	move.l (a0),d1
    2590:	2040           	movea.l d0,a0
    2592:	2081           	move.l d1,(a0)
  for(int i=0; i<16;i++)
    2594:	52af 003c      	addq.l #1,60(sp)
    2598:	700f           	moveq #15,d0
    259a:	b0af 003c      	cmp.l 60(sp),d0
    259e:	6cd4           	bge.s 2574 <ClBuild+0xa4>
  clpartinstruction = ClScreen;
    25a0:	2f7c 0000 a6cc 	move.l #42700,64(sp)
    25a6:	0040 
  for(int i=0; i<12;i++)
    25a8:	42af 0038      	clr.l 56(sp)
    25ac:	6024           	bra.s 25d2 <ClBuild+0x102>
    *cl++ = *clpartinstruction++;
    25ae:	222f 0040      	move.l 64(sp),d1
    25b2:	2401           	move.l d1,d2
    25b4:	5882           	addq.l #4,d2
    25b6:	2f42 0040      	move.l d2,64(sp)
    25ba:	202f 0044      	move.l 68(sp),d0
    25be:	2400           	move.l d0,d2
    25c0:	5882           	addq.l #4,d2
    25c2:	2f42 0044      	move.l d2,68(sp)
    25c6:	2041           	movea.l d1,a0
    25c8:	2210           	move.l (a0),d1
    25ca:	2040           	movea.l d0,a0
    25cc:	2081           	move.l d1,(a0)
  for(int i=0; i<12;i++)
    25ce:	52af 0038      	addq.l #1,56(sp)
    25d2:	700b           	moveq #11,d0
    25d4:	b0af 0038      	cmp.l 56(sp),d0
    25d8:	6cd4           	bge.s 25ae <ClBuild+0xde>
  //cl[CopBpl1High] = (long) cl + 2;
  *cl++ = 0x00e00000;
    25da:	202f 0044      	move.l 68(sp),d0
    25de:	2200           	move.l d0,d1
    25e0:	5881           	addq.l #4,d1
    25e2:	2f41 0044      	move.l d1,68(sp)
    25e6:	2040           	movea.l d0,a0
    25e8:	20bc 00e0 0000 	move.l #14680064,(a0)
  //cl[CopBpl1Low] = (long) cl + 2;
  *cl++ = 0x00e20000;
    25ee:	202f 0044      	move.l 68(sp),d0
    25f2:	2200           	move.l d0,d1
    25f4:	5881           	addq.l #4,d1
    25f6:	2f41 0044      	move.l d1,68(sp)
    25fa:	2040           	movea.l d0,a0
    25fc:	20bc 00e2 0000 	move.l #14811136,(a0)

  clpartinstruction = ClColor;
    2602:	2f7c 0000 a60c 	move.l #42508,64(sp)
    2608:	0040 
  for(int i=0; i<2;i++)
    260a:	42af 0034      	clr.l 52(sp)
    260e:	6024           	bra.s 2634 <ClBuild+0x164>
    *cl++ = *clpartinstruction++;
    2610:	222f 0040      	move.l 64(sp),d1
    2614:	2001           	move.l d1,d0
    2616:	5880           	addq.l #4,d0
    2618:	2f40 0040      	move.l d0,64(sp)
    261c:	202f 0044      	move.l 68(sp),d0
    2620:	2400           	move.l d0,d2
    2622:	5882           	addq.l #4,d2
    2624:	2f42 0044      	move.l d2,68(sp)
    2628:	2041           	movea.l d1,a0
    262a:	2210           	move.l (a0),d1
    262c:	2040           	movea.l d0,a0
    262e:	2081           	move.l d1,(a0)
  for(int i=0; i<2;i++)
    2630:	52af 0034      	addq.l #1,52(sp)
    2634:	7001           	moveq #1,d0
    2636:	b0af 0034      	cmp.l 52(sp),d0
    263a:	6cd4           	bge.s 2610 <ClBuild+0x140>
  *cl = 0xfffffffe;
    263c:	206f 0044      	movea.l 68(sp),a0
    2640:	72fe           	moveq #-2,d1
    2642:	2081           	move.l d1,(a0)

  return retval;
    2644:	202f 0024      	move.l 36(sp),d0
}
    2648:	4cdf 400c      	movem.l (sp)+,d2-d3/a6
    264c:	4fef 003c      	lea 60(sp),sp
    2650:	4e75           	rts

00002652 <PrepareDisplay>:

int PrepareDisplay() {
    2652:	4fef ffb8      	lea -72(sp),sp
    2656:	48e7 3002      	movem.l d2-d3/a6,-(sp)
  Copperlist1 = ClBuild( );
    265a:	4eba fe74      	jsr 24d0 <ClBuild>(pc)
    265e:	23c0 004d 2c04 	move.l d0,4d2c04 <Copperlist1>
  Copperlist2 = ClBuild( );
    2664:	4eba fe6a      	jsr 24d0 <ClBuild>(pc)
    2668:	23c0 004d 2c08 	move.l d0,4d2c08 <Copperlist2>
  Bitplane1 = AllocMem(80*640, MEMF_CHIP);
    266e:	2f7c 0000 c800 	move.l #51200,80(sp)
    2674:	0050 
    2676:	7002           	moveq #2,d0
    2678:	2f40 004c      	move.l d0,76(sp)
    267c:	2039 004d 2c20 	move.l 4d2c20 <SysBase>,d0
    2682:	2c40           	movea.l d0,a6
    2684:	202f 0050      	move.l 80(sp),d0
    2688:	222f 004c      	move.l 76(sp),d1
    268c:	4eae ff3a      	jsr -198(a6)
    2690:	2f40 0048      	move.l d0,72(sp)
    2694:	202f 0048      	move.l 72(sp),d0
    2698:	23c0 004d 2bfc 	move.l d0,4d2bfc <Bitplane1>
  if(Bitplane1 == 0) {
    269e:	2039 004d 2bfc 	move.l 4d2bfc <Bitplane1>,d0
    26a4:	6658           	bne.s 26fe <PrepareDisplay+0xac>
    Write(Output(), "Cannot allocate Memory for Bitplane1.\n",38);
    26a6:	2039 004d 2c28 	move.l 4d2c28 <DOSBase>,d0
    26ac:	2c40           	movea.l d0,a6
    26ae:	4eae ffc4      	jsr -60(a6)
    26b2:	2f40 0044      	move.l d0,68(sp)
    26b6:	202f 0044      	move.l 68(sp),d0
    26ba:	2f40 0040      	move.l d0,64(sp)
    26be:	2f7c 0000 7ca5 	move.l #31909,60(sp)
    26c4:	003c 
    26c6:	7026           	moveq #38,d0
    26c8:	2f40 0038      	move.l d0,56(sp)
    26cc:	2039 004d 2c28 	move.l 4d2c28 <DOSBase>,d0
    26d2:	2c40           	movea.l d0,a6
    26d4:	222f 0040      	move.l 64(sp),d1
    26d8:	242f 003c      	move.l 60(sp),d2
    26dc:	262f 0038      	move.l 56(sp),d3
    26e0:	4eae ffd0      	jsr -48(a6)
    26e4:	2f40 0034      	move.l d0,52(sp)
    Exit(1);
    26e8:	7001           	moveq #1,d0
    26ea:	2f40 0030      	move.l d0,48(sp)
    26ee:	2039 004d 2c28 	move.l 4d2c28 <DOSBase>,d0
    26f4:	2c40           	movea.l d0,a6
    26f6:	222f 0030      	move.l 48(sp),d1
    26fa:	4eae ff70      	jsr -144(a6)
  }
  ViewBuffer = Bitplane1;
    26fe:	2039 004d 2bfc 	move.l 4d2bfc <Bitplane1>,d0
    2704:	23c0 004d 2c10 	move.l d0,4d2c10 <ViewBuffer>
  ViewCopper = Copperlist1;
    270a:	2039 004d 2c04 	move.l 4d2c04 <Copperlist1>,d0
    2710:	23c0 004d 2c18 	move.l d0,4d2c18 <ViewCopper>
  Bitplane2 = AllocMem(80*640, MEMF_CHIP);
    2716:	2f7c 0000 c800 	move.l #51200,44(sp)
    271c:	002c 
    271e:	7002           	moveq #2,d0
    2720:	2f40 0028      	move.l d0,40(sp)
    2724:	2039 004d 2c20 	move.l 4d2c20 <SysBase>,d0
    272a:	2c40           	movea.l d0,a6
    272c:	202f 002c      	move.l 44(sp),d0
    2730:	222f 0028      	move.l 40(sp),d1
    2734:	4eae ff3a      	jsr -198(a6)
    2738:	2f40 0024      	move.l d0,36(sp)
    273c:	202f 0024      	move.l 36(sp),d0
    2740:	23c0 004d 2c00 	move.l d0,4d2c00 <Bitplane2>
  if(Bitplane2 == 0) {
    2746:	2039 004d 2c00 	move.l 4d2c00 <Bitplane2>,d0
    274c:	6658           	bne.s 27a6 <PrepareDisplay+0x154>
    Write(Output(), "Cannot allocate Memory for Bitplane2.\n", 38);
    274e:	2039 004d 2c28 	move.l 4d2c28 <DOSBase>,d0
    2754:	2c40           	movea.l d0,a6
    2756:	4eae ffc4      	jsr -60(a6)
    275a:	2f40 0020      	move.l d0,32(sp)
    275e:	202f 0020      	move.l 32(sp),d0
    2762:	2f40 001c      	move.l d0,28(sp)
    2766:	2f7c 0000 7ccc 	move.l #31948,24(sp)
    276c:	0018 
    276e:	7026           	moveq #38,d0
    2770:	2f40 0014      	move.l d0,20(sp)
    2774:	2039 004d 2c28 	move.l 4d2c28 <DOSBase>,d0
    277a:	2c40           	movea.l d0,a6
    277c:	222f 001c      	move.l 28(sp),d1
    2780:	242f 0018      	move.l 24(sp),d2
    2784:	262f 0014      	move.l 20(sp),d3
    2788:	4eae ffd0      	jsr -48(a6)
    278c:	2f40 0010      	move.l d0,16(sp)
    Exit(1);
    2790:	7001           	moveq #1,d0
    2792:	2f40 000c      	move.l d0,12(sp)
    2796:	2039 004d 2c28 	move.l 4d2c28 <DOSBase>,d0
    279c:	2c40           	movea.l d0,a6
    279e:	222f 000c      	move.l 12(sp),d1
    27a2:	4eae ff70      	jsr -144(a6)
  }
  DrawBuffer = Bitplane2;
    27a6:	2039 004d 2c00 	move.l 4d2c00 <Bitplane2>,d0
    27ac:	23c0 004d 2c0c 	move.l d0,4d2c0c <DrawBuffer>
  DrawCopper = Copperlist2;
    27b2:	2039 004d 2c08 	move.l 4d2c08 <Copperlist2>,d0
    27b8:	23c0 004d 2c14 	move.l d0,4d2c14 <DrawCopper>
  /*SwapCl();
  SetBplPointers();
  SwapCl();
  SetBplPointers();*/
  return 0;
    27be:	7000           	moveq #0,d0
}
    27c0:	4cdf 400c      	movem.l (sp)+,d2-d3/a6
    27c4:	4fef 0048      	lea 72(sp),sp
    27c8:	4e75           	rts

000027ca <TestCopperlistBatch>:

//Test a batch of copperlist instructions against a certain position
int TestCopperlistBatch(  long *instructions, int pos, long *batch, 
                                                                  long length) {
    27ca:	598f           	subq.l #4,sp
  for( int i=0;i<length;i++)
    27cc:	4297           	clr.l (sp)
    27ce:	602a           	bra.s 27fa <TestCopperlistBatch+0x30>
    if( instructions[ pos+i] != batch[ i])
    27d0:	202f 000c      	move.l 12(sp),d0
    27d4:	d097           	add.l (sp),d0
    27d6:	d080           	add.l d0,d0
    27d8:	d080           	add.l d0,d0
    27da:	206f 0008      	movea.l 8(sp),a0
    27de:	d1c0           	adda.l d0,a0
    27e0:	2210           	move.l (a0),d1
    27e2:	2017           	move.l (sp),d0
    27e4:	d080           	add.l d0,d0
    27e6:	d080           	add.l d0,d0
    27e8:	206f 0010      	movea.l 16(sp),a0
    27ec:	d1c0           	adda.l d0,a0
    27ee:	2010           	move.l (a0),d0
    27f0:	b081           	cmp.l d1,d0
    27f2:	6704           	beq.s 27f8 <TestCopperlistBatch+0x2e>
      return 0;
    27f4:	7000           	moveq #0,d0
    27f6:	600c           	bra.s 2804 <TestCopperlistBatch+0x3a>
  for( int i=0;i<length;i++)
    27f8:	5297           	addq.l #1,(sp)
    27fa:	2017           	move.l (sp),d0
    27fc:	b0af 0014      	cmp.l 20(sp),d0
    2800:	6dce           	blt.s 27d0 <TestCopperlistBatch+0x6>
  return 1;
    2802:	7001           	moveq #1,d0
}
    2804:	588f           	addq.l #4,sp
    2806:	4e75           	rts

00002808 <TestCopperlistPos>:

//Check if a certain position in a copperlist has the expected value
int TestCopperlistPos(  long *instructions, int pos, long value) {
  if( instructions[pos] == value ) 
    2808:	202f 0008      	move.l 8(sp),d0
    280c:	d080           	add.l d0,d0
    280e:	d080           	add.l d0,d0
    2810:	206f 0004      	movea.l 4(sp),a0
    2814:	d1c0           	adda.l d0,a0
    2816:	2010           	move.l (a0),d0
    2818:	b0af 000c      	cmp.l 12(sp),d0
    281c:	6604           	bne.s 2822 <TestCopperlistPos+0x1a>
    return 1;
    281e:	7001           	moveq #1,d0
    2820:	6002           	bra.s 2824 <TestCopperlistPos+0x1c>
  else 
    return 0;
    2822:	7000           	moveq #0,d0
}
    2824:	4e75           	rts

00002826 <TestCopperList>:

void TestCopperList() {
    2826:	4fef feb8      	lea -328(sp),sp
    282a:	48e7 3002      	movem.l d2-d3/a6,-(sp)
  Write( Output(), "%d", hw->cop1lc);
    282e:	2039 004d 2c28 	move.l 4d2c28 <DOSBase>,d0
    2834:	2c40           	movea.l d0,a6
    2836:	4eae ffc4      	jsr -60(a6)
    283a:	2f40 0150      	move.l d0,336(sp)
    283e:	202f 0150      	move.l 336(sp),d0
    2842:	2f40 014c      	move.l d0,332(sp)
    2846:	2f7c 0000 7e88 	move.l #32392,328(sp)
    284c:	0148 
    284e:	2079 004d 2c1c 	movea.l 4d2c1c <hw>,a0
    2854:	2028 0080      	move.l 128(a0),d0
    2858:	2f40 0144      	move.l d0,324(sp)
    285c:	2039 004d 2c28 	move.l 4d2c28 <DOSBase>,d0
    2862:	2c40           	movea.l d0,a6
    2864:	222f 014c      	move.l 332(sp),d1
    2868:	242f 0148      	move.l 328(sp),d2
    286c:	262f 0144      	move.l 324(sp),d3
    2870:	4eae ffd0      	jsr -48(a6)
    2874:	2f40 0140      	move.l d0,320(sp)
  Copperlist1 = ClBuild();
    2878:	4eba fc56      	jsr 24d0 <ClBuild>(pc)
    287c:	23c0 004d 2c04 	move.l d0,4d2c04 <Copperlist1>
  DrawCopper = Copperlist1;
    2882:	2039 004d 2c04 	move.l 4d2c04 <Copperlist1>,d0
    2888:	23c0 004d 2c14 	move.l d0,4d2c14 <DrawCopper>
  Copperlist2 = ClBuild();
    288e:	4eba fc40      	jsr 24d0 <ClBuild>(pc)
    2892:	23c0 004d 2c08 	move.l d0,4d2c08 <Copperlist2>
  ViewCopper = Copperlist2;
    2898:	2039 004d 2c08 	move.l 4d2c08 <Copperlist2>,d0
    289e:	23c0 004d 2c18 	move.l d0,4d2c18 <ViewCopper>
  if( TestCopperlistBatch(  Copperlist1, 0, ClsSprites, 16) == 0)
    28a4:	2039 004d 2c04 	move.l 4d2c04 <Copperlist1>,d0
    28aa:	4878 0010      	pea 10 <_start+0x10>
    28ae:	4879 0000 a68c 	pea a68c <ClsSprites>
    28b4:	42a7           	clr.l -(sp)
    28b6:	2f00           	move.l d0,-(sp)
    28b8:	4eba ff10      	jsr 27ca <TestCopperlistBatch>(pc)
    28bc:	4fef 0010      	lea 16(sp),sp
    28c0:	4a80           	tst.l d0
    28c2:	6642           	bne.s 2906 <TestCopperList+0xe0>
    Write(Output(), "Sprite section of copper starting on pos 0 messed up\n", 
    28c4:	2039 004d 2c28 	move.l 4d2c28 <DOSBase>,d0
    28ca:	2c40           	movea.l d0,a6
    28cc:	4eae ffc4      	jsr -60(a6)
    28d0:	2f40 013c      	move.l d0,316(sp)
    28d4:	202f 013c      	move.l 316(sp),d0
    28d8:	2f40 0138      	move.l d0,312(sp)
    28dc:	2f7c 0000 7610 	move.l #30224,308(sp)
    28e2:	0134 
    28e4:	702c           	moveq #44,d0
    28e6:	2f40 0130      	move.l d0,304(sp)
    28ea:	2039 004d 2c28 	move.l 4d2c28 <DOSBase>,d0
    28f0:	2c40           	movea.l d0,a6
    28f2:	222f 0138      	move.l 312(sp),d1
    28f6:	242f 0134      	move.l 308(sp),d2
    28fa:	262f 0130      	move.l 304(sp),d3
    28fe:	4eae ffd0      	jsr -48(a6)
    2902:	2f40 012c      	move.l d0,300(sp)
                                                                            44);
  if(  TestCopperlistBatch(  Copperlist1, 16, ClScreen, 12) == 0)
    2906:	2039 004d 2c04 	move.l 4d2c04 <Copperlist1>,d0
    290c:	4878 000c      	pea c <_start+0xc>
    2910:	4879 0000 a6cc 	pea a6cc <ClScreen>
    2916:	4878 0010      	pea 10 <_start+0x10>
    291a:	2f00           	move.l d0,-(sp)
    291c:	4eba feac      	jsr 27ca <TestCopperlistBatch>(pc)
    2920:	4fef 0010      	lea 16(sp),sp
    2924:	4a80           	tst.l d0
    2926:	6642           	bne.s 296a <TestCopperList+0x144>
    Write(Output(), "Screen section of copper starting on pos 16 messed up\n",
    2928:	2039 004d 2c28 	move.l 4d2c28 <DOSBase>,d0
    292e:	2c40           	movea.l d0,a6
    2930:	4eae ffc4      	jsr -60(a6)
    2934:	2f40 0128      	move.l d0,296(sp)
    2938:	202f 0128      	move.l 296(sp),d0
    293c:	2f40 0124      	move.l d0,292(sp)
    2940:	2f7c 0000 7646 	move.l #30278,288(sp)
    2946:	0120 
    2948:	7036           	moveq #54,d0
    294a:	2f40 011c      	move.l d0,284(sp)
    294e:	2039 004d 2c28 	move.l 4d2c28 <DOSBase>,d0
    2954:	2c40           	movea.l d0,a6
    2956:	222f 0124      	move.l 292(sp),d1
    295a:	242f 0120      	move.l 288(sp),d2
    295e:	262f 011c      	move.l 284(sp),d3
    2962:	4eae ffd0      	jsr -48(a6)
    2966:	2f40 0118      	move.l d0,280(sp)
                                                                            54);   
  
  DrawBuffer = (ULONG *)0x40000;
    296a:	23fc 0004 0000 	move.l #262144,4d2c0c <DrawBuffer>
    2970:	004d 2c0c 
  ViewBuffer = (ULONG *)0x50000;
    2974:	23fc 0005 0000 	move.l #327680,4d2c10 <ViewBuffer>
    297a:	004d 2c10 
  
  SetBplPointers();
    297e:	4eba d7c2      	jsr 142 <SetBplPointers>(pc)
  
  if( DrawBuffer != 0x50000 || ViewBuffer != 0x40000)
    2982:	2039 004d 2c0c 	move.l 4d2c0c <DrawBuffer>,d0
    2988:	0c80 0005 0000 	cmpi.l #327680,d0
    298e:	660e           	bne.s 299e <TestCopperList+0x178>
    2990:	2039 004d 2c10 	move.l 4d2c10 <ViewBuffer>,d0
    2996:	0c80 0004 0000 	cmpi.l #262144,d0
    299c:	6742           	beq.s 29e0 <TestCopperList+0x1ba>
    Write( Output(), 
    299e:	2039 004d 2c28 	move.l 4d2c28 <DOSBase>,d0
    29a4:	2c40           	movea.l d0,a6
    29a6:	4eae ffc4      	jsr -60(a6)
    29aa:	2f40 0114      	move.l d0,276(sp)
    29ae:	202f 0114      	move.l 276(sp),d0
    29b2:	2f40 0110      	move.l d0,272(sp)
    29b6:	2f7c 0000 7e8b 	move.l #32395,268(sp)
    29bc:	010c 
    29be:	703b           	moveq #59,d0
    29c0:	2f40 0108      	move.l d0,264(sp)
    29c4:	2039 004d 2c28 	move.l 4d2c28 <DOSBase>,d0
    29ca:	2c40           	movea.l d0,a6
    29cc:	222f 0110      	move.l 272(sp),d1
    29d0:	242f 010c      	move.l 268(sp),d2
    29d4:	262f 0108      	move.l 264(sp),d3
    29d8:	4eae ffd0      	jsr -48(a6)
    29dc:	2f40 0104      	move.l d0,260(sp)
            "SetBplPointers: Draw and ViewBuffer not proberly switched.\n", 59);
    
  if(  TestCopperlistPos(  Copperlist1, 28, 0x00e00004) == 0)
    29e0:	2039 004d 2c04 	move.l 4d2c04 <Copperlist1>,d0
    29e6:	2f3c 00e0 0004 	move.l #14680068,-(sp)
    29ec:	4878 001c      	pea 1c <_start+0x1c>
    29f0:	2f00           	move.l d0,-(sp)
    29f2:	4eba fe14      	jsr 2808 <TestCopperlistPos>(pc)
    29f6:	4fef 000c      	lea 12(sp),sp
    29fa:	4a80           	tst.l d0
    29fc:	6642           	bne.s 2a40 <TestCopperList+0x21a>
    Write(Output(), 
    29fe:	2039 004d 2c28 	move.l 4d2c28 <DOSBase>,d0
    2a04:	2c40           	movea.l d0,a6
    2a06:	4eae ffc4      	jsr -60(a6)
    2a0a:	2f40 0100      	move.l d0,256(sp)
    2a0e:	202f 0100      	move.l 256(sp),d0
    2a12:	2f40 00fc      	move.l d0,252(sp)
    2a16:	2f7c 0000 7ec7 	move.l #32455,248(sp)
    2a1c:	00f8 
    2a1e:	703c           	moveq #60,d0
    2a20:	2f40 00f4      	move.l d0,244(sp)
    2a24:	2039 004d 2c28 	move.l 4d2c28 <DOSBase>,d0
    2a2a:	2c40           	movea.l d0,a6
    2a2c:	222f 00fc      	move.l 252(sp),d1
    2a30:	242f 00f8      	move.l 248(sp),d2
    2a34:	262f 00f4      	move.l 244(sp),d3
    2a38:	4eae ffd0      	jsr -48(a6)
    2a3c:	2f40 00f0      	move.l d0,240(sp)
           "SetBplPointers: Problem in Copperlist bpl1ph should be 0004\n", 60);
  
  if(  TestCopperlistPos(  Copperlist1, 29, 0x00e20000) == 0)
    2a40:	2039 004d 2c04 	move.l 4d2c04 <Copperlist1>,d0
    2a46:	2f3c 00e2 0000 	move.l #14811136,-(sp)
    2a4c:	4878 001d      	pea 1d <_start+0x1d>
    2a50:	2f00           	move.l d0,-(sp)
    2a52:	4eba fdb4      	jsr 2808 <TestCopperlistPos>(pc)
    2a56:	4fef 000c      	lea 12(sp),sp
    2a5a:	4a80           	tst.l d0
    2a5c:	6642           	bne.s 2aa0 <TestCopperList+0x27a>
    Write(Output(), 
    2a5e:	2039 004d 2c28 	move.l 4d2c28 <DOSBase>,d0
    2a64:	2c40           	movea.l d0,a6
    2a66:	4eae ffc4      	jsr -60(a6)
    2a6a:	2f40 00ec      	move.l d0,236(sp)
    2a6e:	202f 00ec      	move.l 236(sp),d0
    2a72:	2f40 00e8      	move.l d0,232(sp)
    2a76:	2f7c 0000 7f04 	move.l #32516,228(sp)
    2a7c:	00e4 
    2a7e:	703c           	moveq #60,d0
    2a80:	2f40 00e0      	move.l d0,224(sp)
    2a84:	2039 004d 2c28 	move.l 4d2c28 <DOSBase>,d0
    2a8a:	2c40           	movea.l d0,a6
    2a8c:	222f 00e8      	move.l 232(sp),d1
    2a90:	242f 00e4      	move.l 228(sp),d2
    2a94:	262f 00e0      	move.l 224(sp),d3
    2a98:	4eae ffd0      	jsr -48(a6)
    2a9c:	2f40 00dc      	move.l d0,220(sp)
           "SetBplpointers: Problem in Copperlist bpl1pl should be 0000\n", 60);

  if(  TestCopperlistBatch(  Copperlist1, 30, ClColor, 2) == 0)
    2aa0:	2039 004d 2c04 	move.l 4d2c04 <Copperlist1>,d0
    2aa6:	4878 0002      	pea 2 <_start+0x2>
    2aaa:	4879 0000 a60c 	pea a60c <ClColor>
    2ab0:	4878 001e      	pea 1e <_start+0x1e>
    2ab4:	2f00           	move.l d0,-(sp)
    2ab6:	4eba fd12      	jsr 27ca <TestCopperlistBatch>(pc)
    2aba:	4fef 0010      	lea 16(sp),sp
    2abe:	4a80           	tst.l d0
    2ac0:	6642           	bne.s 2b04 <TestCopperList+0x2de>
    Write(Output(), "Copperlist: Colorpart messed up.\n", 33);
    2ac2:	2039 004d 2c28 	move.l 4d2c28 <DOSBase>,d0
    2ac8:	2c40           	movea.l d0,a6
    2aca:	4eae ffc4      	jsr -60(a6)
    2ace:	2f40 00d8      	move.l d0,216(sp)
    2ad2:	202f 00d8      	move.l 216(sp),d0
    2ad6:	2f40 00d4      	move.l d0,212(sp)
    2ada:	2f7c 0000 767d 	move.l #30333,208(sp)
    2ae0:	00d0 
    2ae2:	7021           	moveq #33,d0
    2ae4:	2f40 00cc      	move.l d0,204(sp)
    2ae8:	2039 004d 2c28 	move.l 4d2c28 <DOSBase>,d0
    2aee:	2c40           	movea.l d0,a6
    2af0:	222f 00d4      	move.l 212(sp),d1
    2af4:	242f 00d0      	move.l 208(sp),d2
    2af8:	262f 00cc      	move.l 204(sp),d3
    2afc:	4eae ffd0      	jsr -48(a6)
    2b00:	2f40 00c8      	move.l d0,200(sp)

  
  if( TestCopperlistPos( Copperlist1, 32, 0xfffffffe) == 0)
    2b04:	2039 004d 2c04 	move.l 4d2c04 <Copperlist1>,d0
    2b0a:	4878 fffe      	pea fffffffe <_end+0xffb2d38a>
    2b0e:	4878 0020      	pea 20 <_start+0x20>
    2b12:	2f00           	move.l d0,-(sp)
    2b14:	4eba fcf2      	jsr 2808 <TestCopperlistPos>(pc)
    2b18:	4fef 000c      	lea 12(sp),sp
    2b1c:	4a80           	tst.l d0
    2b1e:	6642           	bne.s 2b62 <TestCopperList+0x33c>
    Write(Output(), "Copperlist End not correctly set.\n", 34);
    2b20:	2039 004d 2c28 	move.l 4d2c28 <DOSBase>,d0
    2b26:	2c40           	movea.l d0,a6
    2b28:	4eae ffc4      	jsr -60(a6)
    2b2c:	2f40 00c4      	move.l d0,196(sp)
    2b30:	202f 00c4      	move.l 196(sp),d0
    2b34:	2f40 00c0      	move.l d0,192(sp)
    2b38:	2f7c 0000 769f 	move.l #30367,188(sp)
    2b3e:	00bc 
    2b40:	7022           	moveq #34,d0
    2b42:	2f40 00b8      	move.l d0,184(sp)
    2b46:	2039 004d 2c28 	move.l 4d2c28 <DOSBase>,d0
    2b4c:	2c40           	movea.l d0,a6
    2b4e:	222f 00c0      	move.l 192(sp),d1
    2b52:	242f 00bc      	move.l 188(sp),d2
    2b56:	262f 00b8      	move.l 184(sp),d3
    2b5a:	4eae ffd0      	jsr -48(a6)
    2b5e:	2f40 00b4      	move.l d0,180(sp)
  
  SwapCl();
    2b62:	4eba d63c      	jsr 1a0 <SwapCl>(pc)
  
  if( DrawCopper != Copperlist2)
    2b66:	2239 004d 2c14 	move.l 4d2c14 <DrawCopper>,d1
    2b6c:	2039 004d 2c08 	move.l 4d2c08 <Copperlist2>,d0
    2b72:	b081           	cmp.l d1,d0
    2b74:	6742           	beq.s 2bb8 <TestCopperList+0x392>
    Write(  Output(), "SwapCl doesn't work.\n", 21);
    2b76:	2039 004d 2c28 	move.l 4d2c28 <DOSBase>,d0
    2b7c:	2c40           	movea.l d0,a6
    2b7e:	4eae ffc4      	jsr -60(a6)
    2b82:	2f40 00b0      	move.l d0,176(sp)
    2b86:	202f 00b0      	move.l 176(sp),d0
    2b8a:	2f40 00ac      	move.l d0,172(sp)
    2b8e:	2f7c 0000 7f41 	move.l #32577,168(sp)
    2b94:	00a8 
    2b96:	7015           	moveq #21,d0
    2b98:	2f40 00a4      	move.l d0,164(sp)
    2b9c:	2039 004d 2c28 	move.l 4d2c28 <DOSBase>,d0
    2ba2:	2c40           	movea.l d0,a6
    2ba4:	222f 00ac      	move.l 172(sp),d1
    2ba8:	242f 00a8      	move.l 168(sp),d2
    2bac:	262f 00a4      	move.l 164(sp),d3
    2bb0:	4eae ffd0      	jsr -48(a6)
    2bb4:	2f40 00a0      	move.l d0,160(sp)

  
  PrepareDisplay();
    2bb8:	4eba fa98      	jsr 2652 <PrepareDisplay>(pc)
  if( DrawBuffer != Bitplane2) 
    2bbc:	2239 004d 2c0c 	move.l 4d2c0c <DrawBuffer>,d1
    2bc2:	2039 004d 2c00 	move.l 4d2c00 <Bitplane2>,d0
    2bc8:	b081           	cmp.l d1,d0
    2bca:	6742           	beq.s 2c0e <TestCopperList+0x3e8>
    Write( Output(), "DrawBuffer should be set to Bitplane 2 on first frame.\n",
    2bcc:	2039 004d 2c28 	move.l 4d2c28 <DOSBase>,d0
    2bd2:	2c40           	movea.l d0,a6
    2bd4:	4eae ffc4      	jsr -60(a6)
    2bd8:	2f40 009c      	move.l d0,156(sp)
    2bdc:	202f 009c      	move.l 156(sp),d0
    2be0:	2f40 0098      	move.l d0,152(sp)
    2be4:	2f7c 0000 7f57 	move.l #32599,148(sp)
    2bea:	0094 
    2bec:	7037           	moveq #55,d0
    2bee:	2f40 0090      	move.l d0,144(sp)
    2bf2:	2039 004d 2c28 	move.l 4d2c28 <DOSBase>,d0
    2bf8:	2c40           	movea.l d0,a6
    2bfa:	222f 0098      	move.l 152(sp),d1
    2bfe:	242f 0094      	move.l 148(sp),d2
    2c02:	262f 0090      	move.l 144(sp),d3
    2c06:	4eae ffd0      	jsr -48(a6)
    2c0a:	2f40 008c      	move.l d0,140(sp)
                                                                            55);
  if( DrawCopper != Copperlist2) 
    2c0e:	2239 004d 2c14 	move.l 4d2c14 <DrawCopper>,d1
    2c14:	2039 004d 2c08 	move.l 4d2c08 <Copperlist2>,d0
    2c1a:	b081           	cmp.l d1,d0
    2c1c:	6742           	beq.s 2c60 <TestCopperList+0x43a>
    Write( Output(), 
    2c1e:	2039 004d 2c28 	move.l 4d2c28 <DOSBase>,d0
    2c24:	2c40           	movea.l d0,a6
    2c26:	4eae ffc4      	jsr -60(a6)
    2c2a:	2f40 0088      	move.l d0,136(sp)
    2c2e:	202f 0088      	move.l 136(sp),d0
    2c32:	2f40 0084      	move.l d0,132(sp)
    2c36:	2f7c 0000 7f8f 	move.l #32655,128(sp)
    2c3c:	0080 
    2c3e:	7039           	moveq #57,d0
    2c40:	2f40 007c      	move.l d0,124(sp)
    2c44:	2039 004d 2c28 	move.l 4d2c28 <DOSBase>,d0
    2c4a:	2c40           	movea.l d0,a6
    2c4c:	222f 0084      	move.l 132(sp),d1
    2c50:	242f 0080      	move.l 128(sp),d2
    2c54:	262f 007c      	move.l 124(sp),d3
    2c58:	4eae ffd0      	jsr -48(a6)
    2c5c:	2f40 0078      	move.l d0,120(sp)
              "DrawCopper should be set to Copperlist 2 on first frame.\n", 57);

  //PrepareDisplay();

  if( ViewBuffer != Bitplane1) 
    2c60:	2239 004d 2c10 	move.l 4d2c10 <ViewBuffer>,d1
    2c66:	2039 004d 2bfc 	move.l 4d2bfc <Bitplane1>,d0
    2c6c:	b081           	cmp.l d1,d0
    2c6e:	6742           	beq.s 2cb2 <TestCopperList+0x48c>
    Write( Output(), 
    2c70:	2039 004d 2c28 	move.l 4d2c28 <DOSBase>,d0
    2c76:	2c40           	movea.l d0,a6
    2c78:	4eae ffc4      	jsr -60(a6)
    2c7c:	2f40 0074      	move.l d0,116(sp)
    2c80:	202f 0074      	move.l 116(sp),d0
    2c84:	2f40 0070      	move.l d0,112(sp)
    2c88:	2f7c 0000 7fc9 	move.l #32713,108(sp)
    2c8e:	006c 
    2c90:	7038           	moveq #56,d0
    2c92:	2f40 0068      	move.l d0,104(sp)
    2c96:	2039 004d 2c28 	move.l 4d2c28 <DOSBase>,d0
    2c9c:	2c40           	movea.l d0,a6
    2c9e:	222f 0070      	move.l 112(sp),d1
    2ca2:	242f 006c      	move.l 108(sp),d2
    2ca6:	262f 0068      	move.l 104(sp),d3
    2caa:	4eae ffd0      	jsr -48(a6)
    2cae:	2f40 0064      	move.l d0,100(sp)
               "Preparedisplay: ViewBuffer should be set to Bitplane 1.\n", 56);

  if( ViewCopper != Copperlist1) 
    2cb2:	2239 004d 2c18 	move.l 4d2c18 <ViewCopper>,d1
    2cb8:	2039 004d 2c04 	move.l 4d2c04 <Copperlist1>,d0
    2cbe:	b081           	cmp.l d1,d0
    2cc0:	6742           	beq.s 2d04 <TestCopperList+0x4de>
    Write( Output(), 
    2cc2:	2039 004d 2c28 	move.l 4d2c28 <DOSBase>,d0
    2cc8:	2c40           	movea.l d0,a6
    2cca:	4eae ffc4      	jsr -60(a6)
    2cce:	2f40 0060      	move.l d0,96(sp)
    2cd2:	202f 0060      	move.l 96(sp),d0
    2cd6:	2f40 005c      	move.l d0,92(sp)
    2cda:	2f7c 0000 8002 	move.l #32770,88(sp)
    2ce0:	0058 
    2ce2:	703a           	moveq #58,d0
    2ce4:	2f40 0054      	move.l d0,84(sp)
    2ce8:	2039 004d 2c28 	move.l 4d2c28 <DOSBase>,d0
    2cee:	2c40           	movea.l d0,a6
    2cf0:	222f 005c      	move.l 92(sp),d1
    2cf4:	242f 0058      	move.l 88(sp),d2
    2cf8:	262f 0054      	move.l 84(sp),d3
    2cfc:	4eae ffd0      	jsr -48(a6)
    2d00:	2f40 0050      	move.l d0,80(sp)
             "PrepareDisplay: ViewCopper should be set to Copperlist 1.\n", 58);
  
  SetBplPointers();
    2d04:	4eba d43c      	jsr 142 <SetBplPointers>(pc)
  SwapCl();
    2d08:	4eba d496      	jsr 1a0 <SwapCl>(pc)
  UWORD *copword = ViewCopper;
    2d0c:	2f79 004d 2c18 	move.l 4d2c18 <ViewCopper>,76(sp)
    2d12:	004c 
  ULONG pointer = copword[COPBPL1LOW] + (copword[COPBPL1HIGH] << 16);
    2d14:	307c 0076      	movea.w #118,a0
    2d18:	d1ef 004c      	adda.l 76(sp),a0
    2d1c:	3010           	move.w (a0),d0
    2d1e:	7200           	moveq #0,d1
    2d20:	3200           	move.w d0,d1
    2d22:	307c 0072      	movea.w #114,a0
    2d26:	d1ef 004c      	adda.l 76(sp),a0
    2d2a:	3010           	move.w (a0),d0
    2d2c:	3000           	move.w d0,d0
    2d2e:	0280 0000 ffff 	andi.l #65535,d0
    2d34:	4840           	swap d0
    2d36:	4240           	clr.w d0
    2d38:	d081           	add.l d1,d0
    2d3a:	2f40 0048      	move.l d0,72(sp)
  if( pointer != (ULONG) Bitplane2) 
    2d3e:	2039 004d 2c00 	move.l 4d2c00 <Bitplane2>,d0
    2d44:	b0af 0048      	cmp.l 72(sp),d0
    2d48:	6742           	beq.s 2d8c <TestCopperList+0x566>
    Write( Output(), "ViewBuffer in Copperlist should be set to Bitplane 2"
    2d4a:	2039 004d 2c28 	move.l 4d2c28 <DOSBase>,d0
    2d50:	2c40           	movea.l d0,a6
    2d52:	4eae ffc4      	jsr -60(a6)
    2d56:	2f40 0044      	move.l d0,68(sp)
    2d5a:	202f 0044      	move.l 68(sp),d0
    2d5e:	2f40 0040      	move.l d0,64(sp)
    2d62:	2f7c 0000 803d 	move.l #32829,60(sp)
    2d68:	003c 
    2d6a:	7048           	moveq #72,d0
    2d6c:	2f40 0038      	move.l d0,56(sp)
    2d70:	2039 004d 2c28 	move.l 4d2c28 <DOSBase>,d0
    2d76:	2c40           	movea.l d0,a6
    2d78:	222f 0040      	move.l 64(sp),d1
    2d7c:	242f 003c      	move.l 60(sp),d2
    2d80:	262f 0038      	move.l 56(sp),d3
    2d84:	4eae ffd0      	jsr -48(a6)
    2d88:	2f40 0034      	move.l d0,52(sp)
                                                   " after first frame.\n", 72);
  SetBplPointers();
    2d8c:	4eba d3b4      	jsr 142 <SetBplPointers>(pc)
  SwapCl();
    2d90:	4eba d40e      	jsr 1a0 <SwapCl>(pc)

  copword = (UWORD *) ViewCopper;
    2d94:	2f79 004d 2c18 	move.l 4d2c18 <ViewCopper>,76(sp)
    2d9a:	004c 
  pointer = copword[COPBPL1LOW] + (copword[COPBPL1HIGH] << 16);
    2d9c:	307c 0076      	movea.w #118,a0
    2da0:	d1ef 004c      	adda.l 76(sp),a0
    2da4:	3010           	move.w (a0),d0
    2da6:	7200           	moveq #0,d1
    2da8:	3200           	move.w d0,d1
    2daa:	307c 0072      	movea.w #114,a0
    2dae:	d1ef 004c      	adda.l 76(sp),a0
    2db2:	3010           	move.w (a0),d0
    2db4:	3000           	move.w d0,d0
    2db6:	0280 0000 ffff 	andi.l #65535,d0
    2dbc:	4840           	swap d0
    2dbe:	4240           	clr.w d0
    2dc0:	d081           	add.l d1,d0
    2dc2:	2f40 0048      	move.l d0,72(sp)
  if( pointer != (ULONG) Bitplane1) 
    2dc6:	2039 004d 2bfc 	move.l 4d2bfc <Bitplane1>,d0
    2dcc:	b0af 0048      	cmp.l 72(sp),d0
    2dd0:	6742           	beq.s 2e14 <TestCopperList+0x5ee>
    Write( Output(), "ViewBuffer in Copperlist should be set to Bitplane 1"
    2dd2:	2039 004d 2c28 	move.l 4d2c28 <DOSBase>,d0
    2dd8:	2c40           	movea.l d0,a6
    2dda:	4eae ffc4      	jsr -60(a6)
    2dde:	2f40 0030      	move.l d0,48(sp)
    2de2:	202f 0030      	move.l 48(sp),d0
    2de6:	2f40 002c      	move.l d0,44(sp)
    2dea:	2f7c 0000 8086 	move.l #32902,40(sp)
    2df0:	0028 
    2df2:	7049           	moveq #73,d0
    2df4:	2f40 0024      	move.l d0,36(sp)
    2df8:	2039 004d 2c28 	move.l 4d2c28 <DOSBase>,d0
    2dfe:	2c40           	movea.l d0,a6
    2e00:	222f 002c      	move.l 44(sp),d1
    2e04:	242f 0028      	move.l 40(sp),d2
    2e08:	262f 0024      	move.l 36(sp),d3
    2e0c:	4eae ffd0      	jsr -48(a6)
    2e10:	2f40 0020      	move.l d0,32(sp)
                                                  " after second frame.\n", 73);
  
  SetBplPointers();
    2e14:	4eba d32c      	jsr 142 <SetBplPointers>(pc)
  SwapCl();
    2e18:	4eba d386      	jsr 1a0 <SwapCl>(pc)

  copword = (UWORD *) ViewCopper;
    2e1c:	2f79 004d 2c18 	move.l 4d2c18 <ViewCopper>,76(sp)
    2e22:	004c 
  pointer = copword[COPBPL1LOW] + (copword[COPBPL1HIGH] << 16);
    2e24:	307c 0076      	movea.w #118,a0
    2e28:	d1ef 004c      	adda.l 76(sp),a0
    2e2c:	3010           	move.w (a0),d0
    2e2e:	7200           	moveq #0,d1
    2e30:	3200           	move.w d0,d1
    2e32:	307c 0072      	movea.w #114,a0
    2e36:	d1ef 004c      	adda.l 76(sp),a0
    2e3a:	3010           	move.w (a0),d0
    2e3c:	3000           	move.w d0,d0
    2e3e:	0280 0000 ffff 	andi.l #65535,d0
    2e44:	4840           	swap d0
    2e46:	4240           	clr.w d0
    2e48:	d081           	add.l d1,d0
    2e4a:	2f40 0048      	move.l d0,72(sp)
  if( pointer != (ULONG) Bitplane2) 
    2e4e:	2039 004d 2c00 	move.l 4d2c00 <Bitplane2>,d0
    2e54:	b0af 0048      	cmp.l 72(sp),d0
    2e58:	6742           	beq.s 2e9c <TestCopperList+0x676>
    Write( Output(), "ViewBuffer in Copperlist should be set to Bitplane 2"
    2e5a:	2039 004d 2c28 	move.l 4d2c28 <DOSBase>,d0
    2e60:	2c40           	movea.l d0,a6
    2e62:	4eae ffc4      	jsr -60(a6)
    2e66:	2f40 001c      	move.l d0,28(sp)
    2e6a:	202f 001c      	move.l 28(sp),d0
    2e6e:	2f40 0018      	move.l d0,24(sp)
    2e72:	2f7c 0000 80d0 	move.l #32976,20(sp)
    2e78:	0014 
    2e7a:	7048           	moveq #72,d0
    2e7c:	2f40 0010      	move.l d0,16(sp)
    2e80:	2039 004d 2c28 	move.l 4d2c28 <DOSBase>,d0
    2e86:	2c40           	movea.l d0,a6
    2e88:	222f 0018      	move.l 24(sp),d1
    2e8c:	242f 0014      	move.l 20(sp),d2
    2e90:	262f 0010      	move.l 16(sp),d3
    2e94:	4eae ffd0      	jsr -48(a6)
    2e98:	2f40 000c      	move.l d0,12(sp)
                                                   " after third frame.\n", 72);

  FreeDisplay(  33*4, 80*640);
    2e9c:	2f3c 0000 c800 	move.l #51200,-(sp)
    2ea2:	4878 0084      	pea 84 <_start+0x84>
    2ea6:	4eba d238      	jsr e0 <FreeDisplay>(pc)
    2eaa:	508f           	addq.l #8,sp
    2eac:	4cdf 400c      	movem.l (sp)+,d2-d3/a6
    2eb0:	4fef 0148      	lea 328(sp),sp
    2eb4:	4e75           	rts

00002eb6 <RunTests>:
#include "runtests.h"
#include "coppertests.h"
#include "swscrollertest.h"

void RunTests() {
    TestCopperList();
    2eb6:	4eba f96e      	jsr 2826 <TestCopperList>(pc)
    ZoomTest();
    2eba:	4eba 0004      	jsr 2ec0 <ZoomTest>(pc)
    //SwScrollerTest();
    2ebe:	4e75           	rts

00002ec0 <ZoomTest>:
#include "zoomtest2.h"

ULONG Cl102ZoomTest[137];

void ZoomTest() {
  TestZoomSpeed();
    2ec0:	4eba 0046      	jsr 2f08 <TestZoomSpeed>(pc)
  ZoomTestDisplay();
    2ec4:	4eba 00e2      	jsr 2fa8 <ZoomTestDisplay>(pc)
  TestBlitleftOfZoom();
    2ec8:	4eba 05a8      	jsr 3472 <TestBlitleftOfZoom>(pc)
  TestCopyWord();
    2ecc:	4eba 0838      	jsr 3706 <TestCopyWord>(pc)
  TestZoom4Picture();
    2ed0:	4eba 0e12      	jsr 3ce4 <TestZoom4Picture>(pc)
  TestZoom4PictureOn5Planes();
    2ed4:	4eba 0b22      	jsr 39f8 <TestZoom4PictureOn5Planes>(pc)
  Test_Zoom2();
    2ed8:	4eba f012      	jsr 1eec <Test_Zoom2>(pc)
  c2p1x1_8_c5_gen_init( 320, 256, 0, 0, 0, 0);
    2edc:	42a7           	clr.l -(sp)
    2ede:	42a7           	clr.l -(sp)
    2ee0:	42a7           	clr.l -(sp)
    2ee2:	42a7           	clr.l -(sp)
    2ee4:	4878 0100      	pea 100 <FreeDisplay+0x20>
    2ee8:	4878 0140      	pea 140 <FreeDisplay+0x60>
    2eec:	4eb9 0000 7218 	jsr 7218 <c2p1x1_8_c5_gen_init>
    2ef2:	4fef 0018      	lea 24(sp),sp
  c2p1x1_8_c5_gen( 0x100, 0x200);
    2ef6:	4878 0200      	pea 200 <Utils_CopyMem+0x22>
    2efa:	4878 0100      	pea 100 <FreeDisplay+0x20>
    2efe:	4eb9 0000 7294 	jsr 7294 <c2p1x1_8_c5_gen>
    2f04:	508f           	addq.l #8,sp
}
    2f06:	4e75           	rts

00002f08 <TestZoomSpeed>:

int Counter4Frames;

void TestZoomSpeed() {
    2f08:	4fef ffe8      	lea -24(sp),sp
    2f0c:	48e7 3002      	movem.l d2-d3/a6,-(sp)

 	TakeSystem();
    2f10:	4eba d668      	jsr 57a <TakeSystem>(pc)
	WaitVbl();
    2f14:	4eba d61a      	jsr 530 <WaitVbl>(pc)
  //             fedcba9876543210
  //hw->dmacon = 0x8def;

  hw->dmacon = DMAF_SETCLR | DMAF_AUDIO | DMAF_BLITTER | DMAF_RASTER 
    2f18:	2079 004d 2c1c 	movea.l 4d2c1c <hw>,a0
    2f1e:	317c 87cf 0096 	move.w #-30769,150(a0)
                                    | DMAF_COPPER | DMAF_MASTER | DMAF_BLITHOG;
   //0b1000011111100000;
  
  //hw->dmacon = 0b1000011111111111;
	hw->intena = (1 << INTB_SETCLR) | (1 << INTB_INTEN) | (1 << INTB_VERTB);
    2f24:	2079 004d 2c1c 	movea.l 4d2c1c <hw>,a0
    2f2a:	317c c020 009a 	move.w #-16352,154(a0)
  
  Zoom_InitRun(); 
    2f30:	4eba e14e      	jsr 1080 <Zoom_InitRun>(pc)

  int success = 1;
    2f34:	7001           	moveq #1,d0
    2f36:	2f40 0020      	move.l d0,32(sp)
  RunFrame();
    2f3a:	4eba d3c0      	jsr 2fc <RunFrame>(pc)
  if( Zoom_Counter >= 9) success = 0;
    2f3e:	3039 004d 2c5c 	move.w 4d2c5c <Zoom_Counter>,d0
    2f44:	0c40 0008      	cmpi.w #8,d0
    2f48:	6304           	bls.s 2f4e <TestZoomSpeed+0x46>
    2f4a:	42af 0020      	clr.l 32(sp)
    
  Zoom_Dealloc();
    2f4e:	4eba e3c8      	jsr 1318 <Zoom_Dealloc>(pc)
  FreeSystem();
    2f52:	4eba d63c      	jsr 590 <FreeSystem>(pc)

  if(success == 0) Write( Output(), "Testzoomspeed takes too long.\n", 28);
    2f56:	4aaf 0020      	tst.l 32(sp)
    2f5a:	6642           	bne.s 2f9e <TestZoomSpeed+0x96>
    2f5c:	2039 004d 2c28 	move.l 4d2c28 <DOSBase>,d0
    2f62:	2c40           	movea.l d0,a6
    2f64:	4eae ffc4      	jsr -60(a6)
    2f68:	2f40 001c      	move.l d0,28(sp)
    2f6c:	202f 001c      	move.l 28(sp),d0
    2f70:	2f40 0018      	move.l d0,24(sp)
    2f74:	2f7c 0000 8119 	move.l #33049,20(sp)
    2f7a:	0014 
    2f7c:	701c           	moveq #28,d0
    2f7e:	2f40 0010      	move.l d0,16(sp)
    2f82:	2039 004d 2c28 	move.l 4d2c28 <DOSBase>,d0
    2f88:	2c40           	movea.l d0,a6
    2f8a:	222f 0018      	move.l 24(sp),d1
    2f8e:	242f 0014      	move.l 20(sp),d2
    2f92:	262f 0010      	move.l 16(sp),d3
    2f96:	4eae ffd0      	jsr -48(a6)
    2f9a:	2f40 000c      	move.l d0,12(sp)

  //AddIntServer(INTB_VERTB, vbint);
  //RemIntServer(INTB_VERTB, vbint);
  
}
    2f9e:	4cdf 400c      	movem.l (sp)+,d2-d3/a6
    2fa2:	4fef 0018      	lea 24(sp),sp
    2fa6:	4e75           	rts

00002fa8 <ZoomTestDisplay>:

void ZoomTestDisplay() {
    2fa8:	4fef ff38      	lea -200(sp),sp
    2fac:	48e7 3002      	movem.l d2-d3/a6,-(sp)

  Zoom_Init();
    2fb0:	4eba e476      	jsr 1428 <Zoom_Init>(pc)
  PrepareDisplayZoom();
    2fb4:	4eba e80c      	jsr 17c2 <PrepareDisplayZoom>(pc)

  if( TestCopperlistBatch(  Copperlist1, 0, ClsSprites, 16) == 0)
    2fb8:	2039 004d 2c04 	move.l 4d2c04 <Copperlist1>,d0
    2fbe:	4878 0010      	pea 10 <_start+0x10>
    2fc2:	4879 0000 a68c 	pea a68c <ClsSprites>
    2fc8:	42a7           	clr.l -(sp)
    2fca:	2f00           	move.l d0,-(sp)
    2fcc:	4eba f7fc      	jsr 27ca <TestCopperlistBatch>(pc)
    2fd0:	4fef 0010      	lea 16(sp),sp
    2fd4:	4a80           	tst.l d0
    2fd6:	6642           	bne.s 301a <ZoomTestDisplay+0x72>
    Write( Output(), 
    2fd8:	2039 004d 2c28 	move.l 4d2c28 <DOSBase>,d0
    2fde:	2c40           	movea.l d0,a6
    2fe0:	4eae ffc4      	jsr -60(a6)
    2fe4:	2f40 00d0      	move.l d0,208(sp)
    2fe8:	202f 00d0      	move.l 208(sp),d0
    2fec:	2f40 00cc      	move.l d0,204(sp)
    2ff0:	2f7c 0000 8138 	move.l #33080,200(sp)
    2ff6:	00c8 
    2ff8:	7045           	moveq #69,d0
    2ffa:	2f40 00c4      	move.l d0,196(sp)
    2ffe:	2039 004d 2c28 	move.l 4d2c28 <DOSBase>,d0
    3004:	2c40           	movea.l d0,a6
    3006:	222f 00cc      	move.l 204(sp),d1
    300a:	242f 00c8      	move.l 200(sp),d2
    300e:	262f 00c4      	move.l 196(sp),d3
    3012:	4eae ffd0      	jsr -48(a6)
    3016:	2f40 00c0      	move.l d0,192(sp)
       "ZoomCopperlist: Sprite section of copper starting on pos 0 messed up\n", 
                                                                            69);
  if(  TestCopperlistBatch(  Copperlist1, 16, ClScreen, 12) == 0)
    301a:	2039 004d 2c04 	move.l 4d2c04 <Copperlist1>,d0
    3020:	4878 000c      	pea c <_start+0xc>
    3024:	4879 0000 a6cc 	pea a6cc <ClScreen>
    302a:	4878 0010      	pea 10 <_start+0x10>
    302e:	2f00           	move.l d0,-(sp)
    3030:	4eba f798      	jsr 27ca <TestCopperlistBatch>(pc)
    3034:	4fef 0010      	lea 16(sp),sp
    3038:	4a80           	tst.l d0
    303a:	6642           	bne.s 307e <ZoomTestDisplay+0xd6>
    Write( Output(), 
    303c:	2039 004d 2c28 	move.l 4d2c28 <DOSBase>,d0
    3042:	2c40           	movea.l d0,a6
    3044:	4eae ffc4      	jsr -60(a6)
    3048:	2f40 00bc      	move.l d0,188(sp)
    304c:	202f 00bc      	move.l 188(sp),d0
    3050:	2f40 00b8      	move.l d0,184(sp)
    3054:	2f7c 0000 817e 	move.l #33150,180(sp)
    305a:	00b4 
    305c:	7046           	moveq #70,d0
    305e:	2f40 00b0      	move.l d0,176(sp)
    3062:	2039 004d 2c28 	move.l 4d2c28 <DOSBase>,d0
    3068:	2c40           	movea.l d0,a6
    306a:	222f 00b8      	move.l 184(sp),d1
    306e:	242f 00b4      	move.l 180(sp),d2
    3072:	262f 00b0      	move.l 176(sp),d3
    3076:	4eae ffd0      	jsr -48(a6)
    307a:	2f40 00ac      	move.l d0,172(sp)
      "ZoomCopperlist: Screen section of copper starting on pos 16 messed up\n",
                                                                            70);
  DrawBuffer = (ULONG *) 0x40000;
    307e:	23fc 0004 0000 	move.l #262144,4d2c0c <DrawBuffer>
    3084:	004d 2c0c 
  ViewBuffer = (ULONG *) 0x50000;
    3088:	23fc 0005 0000 	move.l #327680,4d2c10 <ViewBuffer>
    308e:	004d 2c10 
  Zoom_SetBplPointers( DrawBuffer, DrawCopper);
    3092:	2239 004d 2c14 	move.l 4d2c14 <DrawCopper>,d1
    3098:	2039 004d 2c0c 	move.l 4d2c0c <DrawBuffer>,d0
    309e:	2f01           	move.l d1,-(sp)
    30a0:	2f00           	move.l d0,-(sp)
    30a2:	4eba ed78      	jsr 1e1c <Zoom_SetBplPointers>(pc)
    30a6:	508f           	addq.l #8,sp
  Zoom_SwapBuffers( 0);
    30a8:	42a7           	clr.l -(sp)
    30aa:	4eba ee08      	jsr 1eb4 <Zoom_SwapBuffers>(pc)
    30ae:	588f           	addq.l #4,sp
  if( DrawBuffer != (ULONG *) 0x50000 || (ULONG *) ViewBuffer !=(ULONG *) 0x40000)
    30b0:	2039 004d 2c0c 	move.l 4d2c0c <DrawBuffer>,d0
    30b6:	0c80 0005 0000 	cmpi.l #327680,d0
    30bc:	660e           	bne.s 30cc <ZoomTestDisplay+0x124>
    30be:	2039 004d 2c10 	move.l 4d2c10 <ViewBuffer>,d0
    30c4:	0c80 0004 0000 	cmpi.l #262144,d0
    30ca:	6742           	beq.s 310e <ZoomTestDisplay+0x166>
    Write( Output(), 
    30cc:	2039 004d 2c28 	move.l 4d2c28 <DOSBase>,d0
    30d2:	2c40           	movea.l d0,a6
    30d4:	4eae ffc4      	jsr -60(a6)
    30d8:	2f40 00a8      	move.l d0,168(sp)
    30dc:	202f 00a8      	move.l 168(sp),d0
    30e0:	2f40 00a4      	move.l d0,164(sp)
    30e4:	2f7c 0000 81c5 	move.l #33221,160(sp)
    30ea:	00a0 
    30ec:	703b           	moveq #59,d0
    30ee:	2f40 009c      	move.l d0,156(sp)
    30f2:	2039 004d 2c28 	move.l 4d2c28 <DOSBase>,d0
    30f8:	2c40           	movea.l d0,a6
    30fa:	222f 00a4      	move.l 164(sp),d1
    30fe:	242f 00a0      	move.l 160(sp),d2
    3102:	262f 009c      	move.l 156(sp),d3
    3106:	4eae ffd0      	jsr -48(a6)
    310a:	2f40 0098      	move.l d0,152(sp)
            "ZoomCopperlist: Draw and ViewBuffer not proberly switched.\n", 59);
    
  if(  TestCopperlistPos(  Copperlist1, 28, 0x00e00004) == 0)
    310e:	2039 004d 2c04 	move.l 4d2c04 <Copperlist1>,d0
    3114:	2f3c 00e0 0004 	move.l #14680068,-(sp)
    311a:	4878 001c      	pea 1c <_start+0x1c>
    311e:	2f00           	move.l d0,-(sp)
    3120:	4eba f6e6      	jsr 2808 <TestCopperlistPos>(pc)
    3124:	4fef 000c      	lea 12(sp),sp
    3128:	4a80           	tst.l d0
    312a:	6642           	bne.s 316e <ZoomTestDisplay+0x1c6>
    Write(Output(), 
    312c:	2039 004d 2c28 	move.l 4d2c28 <DOSBase>,d0
    3132:	2c40           	movea.l d0,a6
    3134:	4eae ffc4      	jsr -60(a6)
    3138:	2f40 0094      	move.l d0,148(sp)
    313c:	202f 0094      	move.l 148(sp),d0
    3140:	2f40 0090      	move.l d0,144(sp)
    3144:	2f7c 0000 8201 	move.l #33281,140(sp)
    314a:	008c 
    314c:	703c           	moveq #60,d0
    314e:	2f40 0088      	move.l d0,136(sp)
    3152:	2039 004d 2c28 	move.l 4d2c28 <DOSBase>,d0
    3158:	2c40           	movea.l d0,a6
    315a:	222f 0090      	move.l 144(sp),d1
    315e:	242f 008c      	move.l 140(sp),d2
    3162:	262f 0088      	move.l 136(sp),d3
    3166:	4eae ffd0      	jsr -48(a6)
    316a:	2f40 0084      	move.l d0,132(sp)
           "ZoomCopperlist: Problem in Copperlist bpl1ph should be 0004\n", 60);
  
  if(  TestCopperlistPos(  Copperlist1, 29, 0x00e200f4) == 0)
    316e:	2039 004d 2c04 	move.l 4d2c04 <Copperlist1>,d0
    3174:	2f3c 00e2 00f4 	move.l #14811380,-(sp)
    317a:	4878 001d      	pea 1d <_start+0x1d>
    317e:	2f00           	move.l d0,-(sp)
    3180:	4eba f686      	jsr 2808 <TestCopperlistPos>(pc)
    3184:	4fef 000c      	lea 12(sp),sp
    3188:	4a80           	tst.l d0
    318a:	6642           	bne.s 31ce <ZoomTestDisplay+0x226>
    Write(Output(), 
    318c:	2039 004d 2c28 	move.l 4d2c28 <DOSBase>,d0
    3192:	2c40           	movea.l d0,a6
    3194:	4eae ffc4      	jsr -60(a6)
    3198:	2f40 0080      	move.l d0,128(sp)
    319c:	202f 0080      	move.l 128(sp),d0
    31a0:	2f40 007c      	move.l d0,124(sp)
    31a4:	2f7c 0000 823e 	move.l #33342,120(sp)
    31aa:	0078 
    31ac:	703c           	moveq #60,d0
    31ae:	2f40 0074      	move.l d0,116(sp)
    31b2:	2039 004d 2c28 	move.l 4d2c28 <DOSBase>,d0
    31b8:	2c40           	movea.l d0,a6
    31ba:	222f 007c      	move.l 124(sp),d1
    31be:	242f 0078      	move.l 120(sp),d2
    31c2:	262f 0074      	move.l 116(sp),d3
    31c6:	4eae ffd0      	jsr -48(a6)
    31ca:	2f40 0070      	move.l d0,112(sp)
           "ZoomCopperlist: Problem in Copperlist bpl1pl should be 00f4\n", 60);

  if(  TestCopperlistPos(  Copperlist1, 30, 0x00e40004) == 0)
    31ce:	2039 004d 2c04 	move.l 4d2c04 <Copperlist1>,d0
    31d4:	2f3c 00e4 0004 	move.l #14942212,-(sp)
    31da:	4878 001e      	pea 1e <_start+0x1e>
    31de:	2f00           	move.l d0,-(sp)
    31e0:	4eba f626      	jsr 2808 <TestCopperlistPos>(pc)
    31e4:	4fef 000c      	lea 12(sp),sp
    31e8:	4a80           	tst.l d0
    31ea:	6642           	bne.s 322e <ZoomTestDisplay+0x286>
    Write(Output(), 
    31ec:	2039 004d 2c28 	move.l 4d2c28 <DOSBase>,d0
    31f2:	2c40           	movea.l d0,a6
    31f4:	4eae ffc4      	jsr -60(a6)
    31f8:	2f40 006c      	move.l d0,108(sp)
    31fc:	202f 006c      	move.l 108(sp),d0
    3200:	2f40 0068      	move.l d0,104(sp)
    3204:	2f7c 0000 827b 	move.l #33403,100(sp)
    320a:	0064 
    320c:	703c           	moveq #60,d0
    320e:	2f40 0060      	move.l d0,96(sp)
    3212:	2039 004d 2c28 	move.l 4d2c28 <DOSBase>,d0
    3218:	2c40           	movea.l d0,a6
    321a:	222f 0068      	move.l 104(sp),d1
    321e:	242f 0064      	move.l 100(sp),d2
    3222:	262f 0060      	move.l 96(sp),d3
    3226:	4eae ffd0      	jsr -48(a6)
    322a:	2f40 005c      	move.l d0,92(sp)
           "ZoomCopperlist: Problem in Copperlist bpl2ph should be 0004\n", 60);
  
  if(  TestCopperlistPos(  Copperlist1, 31, 0x00e60124) == 0)
    322e:	2039 004d 2c04 	move.l 4d2c04 <Copperlist1>,d0
    3234:	2f3c 00e6 0124 	move.l #15073572,-(sp)
    323a:	4878 001f      	pea 1f <_start+0x1f>
    323e:	2f00           	move.l d0,-(sp)
    3240:	4eba f5c6      	jsr 2808 <TestCopperlistPos>(pc)
    3244:	4fef 000c      	lea 12(sp),sp
    3248:	4a80           	tst.l d0
    324a:	6642           	bne.s 328e <ZoomTestDisplay+0x2e6>
    Write(Output(), 
    324c:	2039 004d 2c28 	move.l 4d2c28 <DOSBase>,d0
    3252:	2c40           	movea.l d0,a6
    3254:	4eae ffc4      	jsr -60(a6)
    3258:	2f40 0058      	move.l d0,88(sp)
    325c:	202f 0058      	move.l 88(sp),d0
    3260:	2f40 0054      	move.l d0,84(sp)
    3264:	2f7c 0000 82b8 	move.l #33464,80(sp)
    326a:	0050 
    326c:	703c           	moveq #60,d0
    326e:	2f40 004c      	move.l d0,76(sp)
    3272:	2039 004d 2c28 	move.l 4d2c28 <DOSBase>,d0
    3278:	2c40           	movea.l d0,a6
    327a:	222f 0054      	move.l 84(sp),d1
    327e:	242f 0050      	move.l 80(sp),d2
    3282:	262f 004c      	move.l 76(sp),d3
    3286:	4eae ffd0      	jsr -48(a6)
    328a:	2f40 0048      	move.l d0,72(sp)
           "ZoomCopperlist: Problem in Copperlist bpl2pl should be 0034\n", 60);


  if(  TestCopperlistBatch(  Copperlist1, 38, ClColor, 32) == 0)
    328e:	2039 004d 2c04 	move.l 4d2c04 <Copperlist1>,d0
    3294:	4878 0020      	pea 20 <_start+0x20>
    3298:	4879 0000 a60c 	pea a60c <ClColor>
    329e:	4878 0026      	pea 26 <_start+0x26>
    32a2:	2f00           	move.l d0,-(sp)
    32a4:	4eba f524      	jsr 27ca <TestCopperlistBatch>(pc)
    32a8:	4fef 0010      	lea 16(sp),sp
    32ac:	4a80           	tst.l d0
    32ae:	6642           	bne.s 32f2 <ZoomTestDisplay+0x34a>
    Write(Output(), "ZoomCopperlist: Colorpart messed up.\n", 37);
    32b0:	2039 004d 2c28 	move.l 4d2c28 <DOSBase>,d0
    32b6:	2c40           	movea.l d0,a6
    32b8:	4eae ffc4      	jsr -60(a6)
    32bc:	2f40 0044      	move.l d0,68(sp)
    32c0:	202f 0044      	move.l 68(sp),d0
    32c4:	2f40 0040      	move.l d0,64(sp)
    32c8:	2f7c 0000 82f5 	move.l #33525,60(sp)
    32ce:	003c 
    32d0:	7025           	moveq #37,d0
    32d2:	2f40 0038      	move.l d0,56(sp)
    32d6:	2039 004d 2c28 	move.l 4d2c28 <DOSBase>,d0
    32dc:	2c40           	movea.l d0,a6
    32de:	222f 0040      	move.l 64(sp),d1
    32e2:	242f 003c      	move.l 60(sp),d2
    32e6:	262f 0038      	move.l 56(sp),d3
    32ea:	4eae ffd0      	jsr -48(a6)
    32ee:	2f40 0034      	move.l d0,52(sp)

  /*if(  TestCopperlistBatch(  Copperlist1, 71, Cl102ZoomRepeat, 21) == 0)
    Write(Output(), "ZoomCopperlist: Zoompart messed up.\n", 36); */
  
  Zoom_Shrink102( 15, (UWORD *) Copperlist1);
    32f2:	2039 004d 2c04 	move.l 4d2c04 <Copperlist1>,d0
    32f8:	2f00           	move.l d0,-(sp)
    32fa:	4878 000f      	pea f <_start+0xf>
    32fe:	4eba d10c      	jsr 40c <Zoom_Shrink102>(pc)
    3302:	508f           	addq.l #8,sp
  if( TestCopperListZoom102( Copperlist1, 73, Cl102ZoomTest) == 0)
    3304:	2039 004d 2c04 	move.l 4d2c04 <Copperlist1>,d0
    330a:	4879 0000 b8a4 	pea b8a4 <Cl102ZoomTest>
    3310:	4878 0049      	pea 49 <_start+0x49>
    3314:	2f00           	move.l d0,-(sp)
    3316:	4eba 00c4      	jsr 33dc <TestCopperListZoom102>(pc)
    331a:	4fef 000c      	lea 12(sp),sp
    331e:	4a80           	tst.l d0
    3320:	6642           	bne.s 3364 <ZoomTestDisplay+0x3bc>
    Write(Output(), "ZoomCopperlist: Zoompart messed up.\n", 37);
    3322:	2039 004d 2c28 	move.l 4d2c28 <DOSBase>,d0
    3328:	2c40           	movea.l d0,a6
    332a:	4eae ffc4      	jsr -60(a6)
    332e:	2f40 0030      	move.l d0,48(sp)
    3332:	202f 0030      	move.l 48(sp),d0
    3336:	2f40 002c      	move.l d0,44(sp)
    333a:	2f7c 0000 831b 	move.l #33563,40(sp)
    3340:	0028 
    3342:	7025           	moveq #37,d0
    3344:	2f40 0024      	move.l d0,36(sp)
    3348:	2039 004d 2c28 	move.l 4d2c28 <DOSBase>,d0
    334e:	2c40           	movea.l d0,a6
    3350:	222f 002c      	move.l 44(sp),d1
    3354:	242f 0028      	move.l 40(sp),d2
    3358:	262f 0024      	move.l 36(sp),d3
    335c:	4eae ffd0      	jsr -48(a6)
    3360:	2f40 0020      	move.l d0,32(sp)

  if( TestCopperlistPos( Copperlist1, 73+114, 0xfffffffe) == 0)
    3364:	2039 004d 2c04 	move.l 4d2c04 <Copperlist1>,d0
    336a:	4878 fffe      	pea fffffffe <_end+0xffb2d38a>
    336e:	4878 00bb      	pea bb <WaitBlt+0x7>
    3372:	2f00           	move.l d0,-(sp)
    3374:	4eba f492      	jsr 2808 <TestCopperlistPos>(pc)
    3378:	4fef 000c      	lea 12(sp),sp
    337c:	4a80           	tst.l d0
    337e:	6642           	bne.s 33c2 <ZoomTestDisplay+0x41a>
    Write( Output(), "ZoomCopperlist: Copperlist End not correctly set.\n", 50);
    3380:	2039 004d 2c28 	move.l 4d2c28 <DOSBase>,d0
    3386:	2c40           	movea.l d0,a6
    3388:	4eae ffc4      	jsr -60(a6)
    338c:	2f40 001c      	move.l d0,28(sp)
    3390:	202f 001c      	move.l 28(sp),d0
    3394:	2f40 0018      	move.l d0,24(sp)
    3398:	2f7c 0000 8340 	move.l #33600,20(sp)
    339e:	0014 
    33a0:	7032           	moveq #50,d0
    33a2:	2f40 0010      	move.l d0,16(sp)
    33a6:	2039 004d 2c28 	move.l 4d2c28 <DOSBase>,d0
    33ac:	2c40           	movea.l d0,a6
    33ae:	222f 0018      	move.l 24(sp),d1
    33b2:	242f 0014      	move.l 20(sp),d2
    33b6:	262f 0010      	move.l 16(sp),d3
    33ba:	4eae ffd0      	jsr -48(a6)
    33be:	2f40 000c      	move.l d0,12(sp)

  FreeDisplay( ZMCPSIZE, ZMBPLSIZE);
    33c2:	2f3c 0000 df20 	move.l #57120,-(sp)
    33c8:	4878 031c      	pea 31c <Zoom_InsertShift+0x1e>
    33cc:	4eba cd12      	jsr e0 <FreeDisplay>(pc)
    33d0:	508f           	addq.l #8,sp

}
    33d2:	4cdf 400c      	movem.l (sp)+,d2-d3/a6
    33d6:	4fef 00c8      	lea 200(sp),sp
    33da:	4e75           	rts

000033dc <TestCopperListZoom102>:

int TestCopperListZoom102( ULONG *cl2test, UWORD position, 
                                                           ULONG *template4cl) {
    33dc:	598f           	subq.l #4,sp
    33de:	202f 000c      	move.l 12(sp),d0
    33e2:	3000           	move.w d0,d0
    33e4:	3f40 0002      	move.w d0,2(sp)
  if( TestCopperlistBatch( cl2test, position, template4cl, 28) == 0)
    33e8:	7000           	moveq #0,d0
    33ea:	302f 0002      	move.w 2(sp),d0
    33ee:	4878 001c      	pea 1c <_start+0x1c>
    33f2:	2f2f 0014      	move.l 20(sp),-(sp)
    33f6:	2f00           	move.l d0,-(sp)
    33f8:	2f2f 0014      	move.l 20(sp),-(sp)
    33fc:	4eba f3cc      	jsr 27ca <TestCopperlistBatch>(pc)
    3400:	4fef 0010      	lea 16(sp),sp
    3404:	4a80           	tst.l d0
    3406:	6604           	bne.s 340c <TestCopperListZoom102+0x30>
    return 0;
    3408:	7000           	moveq #0,d0
    340a:	6062           	bra.s 346e <TestCopperListZoom102+0x92>
  if( TestCopperlistBatch( cl2test, position+30, template4cl+30, 54) == 0)
    340c:	7078           	moveq #120,d0
    340e:	d0af 0010      	add.l 16(sp),d0
    3412:	7200           	moveq #0,d1
    3414:	322f 0002      	move.w 2(sp),d1
    3418:	307c 001e      	movea.w #30,a0
    341c:	d1c1           	adda.l d1,a0
    341e:	4878 0036      	pea 36 <_start+0x36>
    3422:	2f00           	move.l d0,-(sp)
    3424:	2f08           	move.l a0,-(sp)
    3426:	2f2f 0014      	move.l 20(sp),-(sp)
    342a:	4eba f39e      	jsr 27ca <TestCopperlistBatch>(pc)
    342e:	4fef 0010      	lea 16(sp),sp
    3432:	4a80           	tst.l d0
    3434:	6604           	bne.s 343a <TestCopperListZoom102+0x5e>
    return 0;
    3436:	7000           	moveq #0,d0
    3438:	6034           	bra.s 346e <TestCopperListZoom102+0x92>
  if( TestCopperlistBatch( cl2test, position+86, template4cl+86, 28) == 0)
    343a:	202f 0010      	move.l 16(sp),d0
    343e:	0680 0000 0158 	addi.l #344,d0
    3444:	7200           	moveq #0,d1
    3446:	322f 0002      	move.w 2(sp),d1
    344a:	307c 0056      	movea.w #86,a0
    344e:	d1c1           	adda.l d1,a0
    3450:	4878 001c      	pea 1c <_start+0x1c>
    3454:	2f00           	move.l d0,-(sp)
    3456:	2f08           	move.l a0,-(sp)
    3458:	2f2f 0014      	move.l 20(sp),-(sp)
    345c:	4eba f36c      	jsr 27ca <TestCopperlistBatch>(pc)
    3460:	4fef 0010      	lea 16(sp),sp
    3464:	4a80           	tst.l d0
    3466:	6604           	bne.s 346c <TestCopperListZoom102+0x90>
    return 0;
    3468:	7000           	moveq #0,d0
    346a:	6002           	bra.s 346e <TestCopperListZoom102+0x92>
 
  return 1;
    346c:	7001           	moveq #1,d0
}
    346e:	588f           	addq.l #4,sp
    3470:	4e75           	rts

00003472 <TestBlitleftOfZoom>:

void TestBlitleftOfZoom() {
    3472:	4fef ff94      	lea -108(sp),sp
    3476:	48e7 3002      	movem.l d2-d3/a6,-(sp)
  Zoom_Init();
    347a:	4eba dfac      	jsr 1428 <Zoom_Init>(pc)
  PrepareDisplayZoom();
    347e:	4eba e342      	jsr 17c2 <PrepareDisplayZoom>(pc)

  Zoom_Source = AllocMem(40*256*5, MEMF_CHIP);
    3482:	2f7c 0000 c800 	move.l #51200,116(sp)
    3488:	0074 
    348a:	7002           	moveq #2,d0
    348c:	2f40 0070      	move.l d0,112(sp)
    3490:	2039 004d 2c20 	move.l 4d2c20 <SysBase>,d0
    3496:	2c40           	movea.l d0,a6
    3498:	202f 0074      	move.l 116(sp),d0
    349c:	222f 0070      	move.l 112(sp),d1
    34a0:	4eae ff3a      	jsr -198(a6)
    34a4:	2f40 006c      	move.l d0,108(sp)
    34a8:	202f 006c      	move.l 108(sp),d0
    34ac:	23c0 004d 2c4e 	move.l d0,4d2c4e <Zoom_Source>
  if( Zoom_Source == 0) {
    34b2:	2039 004d 2c4e 	move.l 4d2c4e <Zoom_Source>,d0
    34b8:	6646           	bne.s 3500 <TestBlitleftOfZoom+0x8e>
    Write(  Output(), 
    34ba:	2039 004d 2c28 	move.l 4d2c28 <DOSBase>,d0
    34c0:	2c40           	movea.l d0,a6
    34c2:	4eae ffc4      	jsr -60(a6)
    34c6:	2f40 001c      	move.l d0,28(sp)
    34ca:	202f 001c      	move.l 28(sp),d0
    34ce:	2f40 0018      	move.l d0,24(sp)
    34d2:	2f7c 0000 8373 	move.l #33651,20(sp)
    34d8:	0014 
    34da:	7236           	moveq #54,d1
    34dc:	2f41 0010      	move.l d1,16(sp)
    34e0:	2039 004d 2c28 	move.l 4d2c28 <DOSBase>,d0
    34e6:	2c40           	movea.l d0,a6
    34e8:	222f 0018      	move.l 24(sp),d1
    34ec:	242f 0014      	move.l 20(sp),d2
    34f0:	262f 0010      	move.l 16(sp),d3
    34f4:	4eae ffd0      	jsr -48(a6)
    34f8:	2f40 000c      	move.l d0,12(sp)
    34fc:	6000 01fe      	bra.w 36fc <TestBlitleftOfZoom+0x28a>
                 "Zoomtestroutines: Can not allocate mem for Zoomsource.\n",54);
    return;
  }
  
  UWORD *tstsource = Zoom_Source;
    3500:	2f79 004d 2c4e 	move.l 4d2c4e <Zoom_Source>,104(sp)
    3506:	0068 
  *tstsource++ = 0x0000;
    3508:	202f 0068      	move.l 104(sp),d0
    350c:	2200           	move.l d0,d1
    350e:	5481           	addq.l #2,d1
    3510:	2f41 0068      	move.l d1,104(sp)
    3514:	2040           	movea.l d0,a0
    3516:	4250           	clr.w (a0)
  *tstsource = 0x0080;
    3518:	206f 0068      	movea.l 104(sp),a0
    351c:	30bc 0080      	move.w #128,(a0)
  tstsource += ZMLINESIZE/2-1;
    3520:	7028           	moveq #40,d0
    3522:	d1af 0068      	add.l d0,104(sp)
  *tstsource = 0x1000;
    3526:	206f 0068      	movea.l 104(sp),a0
    352a:	30bc 1000      	move.w #4096,(a0)
  tstsource++;
    352e:	54af 0068      	addq.l #2,104(sp)
  *tstsource = 0x8e88;
    3532:	206f 0068      	movea.l 104(sp),a0
    3536:	30bc 8e88      	move.w #-29048,(a0)
  tstsource += ZMLINESIZE/2-1;
    353a:	7228           	moveq #40,d1
    353c:	d3af 0068      	add.l d1,104(sp)

  tstsource = (UWORD *)Zoom_Source + 127*ZMLINESIZE/2;
    3540:	2039 004d 2c4e 	move.l 4d2c4e <Zoom_Source>,d0
    3546:	2200           	move.l d0,d1
    3548:	0681 0000 14d6 	addi.l #5334,d1
    354e:	2f41 0068      	move.l d1,104(sp)
  *tstsource++ = 0x0000;
    3552:	202f 0068      	move.l 104(sp),d0
    3556:	2200           	move.l d0,d1
    3558:	5481           	addq.l #2,d1
    355a:	2f41 0068      	move.l d1,104(sp)
    355e:	2040           	movea.l d0,a0
    3560:	4250           	clr.w (a0)
  *tstsource = 0x00ff;
    3562:	206f 0068      	movea.l 104(sp),a0
    3566:	30bc 00ff      	move.w #255,(a0)
  WaitBlit();
    356a:	2039 004d 2c2c 	move.l 4d2c2c <GfxBase>,d0
    3570:	2c40           	movea.l d0,a6
    3572:	4eae ff1c      	jsr -228(a6)
  Init_Blit();
    3576:	4eba e3c2      	jsr 193a <Init_Blit>(pc)
  Init_ZoomBlit( 7, 16, 0);
    357a:	42a7           	clr.l -(sp)
    357c:	4878 0010      	pea 10 <_start+0x10>
    3580:	4878 0007      	pea 7 <_start+0x7>
    3584:	4eba e430      	jsr 19b6 <Init_ZoomBlit>(pc)
    3588:	4fef 000c      	lea 12(sp),sp
  Zoom_ZoomBlit( Zoom_Source, (UWORD *)DrawBuffer, 128);
    358c:	2239 004d 2c0c 	move.l 4d2c0c <DrawBuffer>,d1
    3592:	2039 004d 2c4e 	move.l 4d2c4e <Zoom_Source>,d0
    3598:	4878 0080      	pea 80 <_start+0x80>
    359c:	2f01           	move.l d1,-(sp)
    359e:	2f00           	move.l d0,-(sp)
    35a0:	4eba d9fc      	jsr f9e <Zoom_ZoomBlit>(pc)
    35a4:	4fef 000c      	lea 12(sp),sp
  WaitBlit();
    35a8:	2039 004d 2c2c 	move.l 4d2c2c <GfxBase>,d0
    35ae:	2c40           	movea.l d0,a6
    35b0:	4eae ff1c      	jsr -228(a6)
  UWORD *destination = (UWORD *)DrawBuffer+1;
    35b4:	2039 004d 2c0c 	move.l 4d2c0c <DrawBuffer>,d0
    35ba:	2200           	move.l d0,d1
    35bc:	5481           	addq.l #2,d1
    35be:	2f41 0064      	move.l d1,100(sp)
  if( *destination != 0x0180) {
    35c2:	206f 0064      	movea.l 100(sp),a0
    35c6:	3010           	move.w (a0),d0
    35c8:	0c40 0180      	cmpi.w #384,d0
    35cc:	6742           	beq.s 3610 <TestBlitleftOfZoom+0x19e>
    Write(  Output(), "Zoomblit - First row wrong.\n",28);
    35ce:	2039 004d 2c28 	move.l 4d2c28 <DOSBase>,d0
    35d4:	2c40           	movea.l d0,a6
    35d6:	4eae ffc4      	jsr -60(a6)
    35da:	2f40 0060      	move.l d0,96(sp)
    35de:	202f 0060      	move.l 96(sp),d0
    35e2:	2f40 005c      	move.l d0,92(sp)
    35e6:	2f7c 0000 83ab 	move.l #33707,88(sp)
    35ec:	0058 
    35ee:	701c           	moveq #28,d0
    35f0:	2f40 0054      	move.l d0,84(sp)
    35f4:	2039 004d 2c28 	move.l 4d2c28 <DOSBase>,d0
    35fa:	2c40           	movea.l d0,a6
    35fc:	222f 005c      	move.l 92(sp),d1
    3600:	242f 0058      	move.l 88(sp),d2
    3604:	262f 0054      	move.l 84(sp),d3
    3608:	4eae ffd0      	jsr -48(a6)
    360c:	2f40 0050      	move.l d0,80(sp)
  }
  destination += ZMLINESIZE/2;
    3610:	722a           	moveq #42,d1
    3612:	d3af 0064      	add.l d1,100(sp)
  if( *destination != 0x1d88)
    3616:	206f 0064      	movea.l 100(sp),a0
    361a:	3010           	move.w (a0),d0
    361c:	0c40 1d88      	cmpi.w #7560,d0
    3620:	6742           	beq.s 3664 <TestBlitleftOfZoom+0x1f2>
    Write(  Output(), "Zoomblit: Second row wrong.\n",28);
    3622:	2039 004d 2c28 	move.l 4d2c28 <DOSBase>,d0
    3628:	2c40           	movea.l d0,a6
    362a:	4eae ffc4      	jsr -60(a6)
    362e:	2f40 004c      	move.l d0,76(sp)
    3632:	202f 004c      	move.l 76(sp),d0
    3636:	2f40 0048      	move.l d0,72(sp)
    363a:	2f7c 0000 83c8 	move.l #33736,68(sp)
    3640:	0044 
    3642:	701c           	moveq #28,d0
    3644:	2f40 0040      	move.l d0,64(sp)
    3648:	2039 004d 2c28 	move.l 4d2c28 <DOSBase>,d0
    364e:	2c40           	movea.l d0,a6
    3650:	222f 0048      	move.l 72(sp),d1
    3654:	242f 0044      	move.l 68(sp),d2
    3658:	262f 0040      	move.l 64(sp),d3
    365c:	4eae ffd0      	jsr -48(a6)
    3660:	2f40 003c      	move.l d0,60(sp)

  
  destination = (UWORD *)DrawBuffer + 127*ZMLINESIZE/2;
    3664:	2039 004d 2c0c 	move.l 4d2c0c <DrawBuffer>,d0
    366a:	2200           	move.l d0,d1
    366c:	0681 0000 14d6 	addi.l #5334,d1
    3672:	2f41 0064      	move.l d1,100(sp)
  destination++;
    3676:	54af 0064      	addq.l #2,100(sp)
  if( *destination != 0x01ff) {
    367a:	206f 0064      	movea.l 100(sp),a0
    367e:	3010           	move.w (a0),d0
    3680:	0c40 01ff      	cmpi.w #511,d0
    3684:	6742           	beq.s 36c8 <TestBlitleftOfZoom+0x256>
    Write(  Output(), "Zoomblit: Last row wrong.\n",26);
    3686:	2039 004d 2c28 	move.l 4d2c28 <DOSBase>,d0
    368c:	2c40           	movea.l d0,a6
    368e:	4eae ffc4      	jsr -60(a6)
    3692:	2f40 0038      	move.l d0,56(sp)
    3696:	202f 0038      	move.l 56(sp),d0
    369a:	2f40 0034      	move.l d0,52(sp)
    369e:	2f7c 0000 83e5 	move.l #33765,48(sp)
    36a4:	0030 
    36a6:	701a           	moveq #26,d0
    36a8:	2f40 002c      	move.l d0,44(sp)
    36ac:	2039 004d 2c28 	move.l 4d2c28 <DOSBase>,d0
    36b2:	2c40           	movea.l d0,a6
    36b4:	222f 0034      	move.l 52(sp),d1
    36b8:	242f 0030      	move.l 48(sp),d2
    36bc:	262f 002c      	move.l 44(sp),d3
    36c0:	4eae ffd0      	jsr -48(a6)
    36c4:	2f40 0028      	move.l d0,40(sp)
  }
  FreeMem( Zoom_Source, 40*256*5);
    36c8:	2f79 004d 2c4e 	move.l 4d2c4e <Zoom_Source>,36(sp)
    36ce:	0024 
    36d0:	2f7c 0000 c800 	move.l #51200,32(sp)
    36d6:	0020 
    36d8:	2039 004d 2c20 	move.l 4d2c20 <SysBase>,d0
    36de:	2c40           	movea.l d0,a6
    36e0:	226f 0024      	movea.l 36(sp),a1
    36e4:	202f 0020      	move.l 32(sp),d0
    36e8:	4eae ff2e      	jsr -210(a6)
  FreeDisplay(  ZMCPSIZE, ZMBPLSIZE);
    36ec:	2f3c 0000 df20 	move.l #57120,-(sp)
    36f2:	4878 031c      	pea 31c <Zoom_InsertShift+0x1e>
    36f6:	4eba c9e8      	jsr e0 <FreeDisplay>(pc)
    36fa:	508f           	addq.l #8,sp
}
    36fc:	4cdf 400c      	movem.l (sp)+,d2-d3/a6
    3700:	4fef 006c      	lea 108(sp),sp
    3704:	4e75           	rts

00003706 <TestCopyWord>:

void TestCopyWord() {
    3706:	4fef ff74      	lea -140(sp),sp
    370a:	48e7 3002      	movem.l d2-d3/a6,-(sp)
  UWORD *source = AllocMem( ZMLINESIZE*30, MEMF_CHIP);
    370e:	2f7c 0000 04ec 	move.l #1260,136(sp)
    3714:	0088 
    3716:	7002           	moveq #2,d0
    3718:	2f40 0084      	move.l d0,132(sp)
    371c:	2039 004d 2c20 	move.l 4d2c20 <SysBase>,d0
    3722:	2c40           	movea.l d0,a6
    3724:	202f 0088      	move.l 136(sp),d0
    3728:	222f 0084      	move.l 132(sp),d1
    372c:	4eae ff3a      	jsr -198(a6)
    3730:	2f40 0080      	move.l d0,128(sp)
    3734:	202f 0080      	move.l 128(sp),d0
    3738:	2f40 007c      	move.l d0,124(sp)
  if( source == 0) {
    373c:	6646           	bne.s 3784 <TestCopyWord+0x7e>
    Write(  Output(), "TestCopyWord: Memory for Source cannot be allocated.\n",
    373e:	2039 004d 2c28 	move.l 4d2c28 <DOSBase>,d0
    3744:	2c40           	movea.l d0,a6
    3746:	4eae ffc4      	jsr -60(a6)
    374a:	2f40 001c      	move.l d0,28(sp)
    374e:	202f 001c      	move.l 28(sp),d0
    3752:	2f40 0018      	move.l d0,24(sp)
    3756:	2f7c 0000 8400 	move.l #33792,20(sp)
    375c:	0014 
    375e:	7235           	moveq #53,d1
    3760:	2f41 0010      	move.l d1,16(sp)
    3764:	2039 004d 2c28 	move.l 4d2c28 <DOSBase>,d0
    376a:	2c40           	movea.l d0,a6
    376c:	222f 0018      	move.l 24(sp),d1
    3770:	242f 0014      	move.l 20(sp),d2
    3774:	262f 0010      	move.l 16(sp),d3
    3778:	4eae ffd0      	jsr -48(a6)
    377c:	2f40 000c      	move.l d0,12(sp)
    3780:	6000 026c      	bra.w 39ee <TestCopyWord+0x2e8>
                                                                            53);
    return;
  }
  UWORD *destination = AllocMem(ZMLINESIZE*30, MEMF_CHIP);
    3784:	2f7c 0000 04ec 	move.l #1260,120(sp)
    378a:	0078 
    378c:	7002           	moveq #2,d0
    378e:	2f40 0074      	move.l d0,116(sp)
    3792:	2039 004d 2c20 	move.l 4d2c20 <SysBase>,d0
    3798:	2c40           	movea.l d0,a6
    379a:	202f 0078      	move.l 120(sp),d0
    379e:	222f 0074      	move.l 116(sp),d1
    37a2:	4eae ff3a      	jsr -198(a6)
    37a6:	2f40 0070      	move.l d0,112(sp)
    37aa:	202f 0070      	move.l 112(sp),d0
    37ae:	2f40 006c      	move.l d0,108(sp)
  if( destination == 0) {
    37b2:	6646           	bne.s 37fa <TestCopyWord+0xf4>
    Write(  Output(), "TestCopyWord: Memory for Source cannot be allocated.\n",
    37b4:	2039 004d 2c28 	move.l 4d2c28 <DOSBase>,d0
    37ba:	2c40           	movea.l d0,a6
    37bc:	4eae ffc4      	jsr -60(a6)
    37c0:	2f40 0030      	move.l d0,48(sp)
    37c4:	202f 0030      	move.l 48(sp),d0
    37c8:	2f40 002c      	move.l d0,44(sp)
    37cc:	2f7c 0000 8400 	move.l #33792,40(sp)
    37d2:	0028 
    37d4:	7235           	moveq #53,d1
    37d6:	2f41 0024      	move.l d1,36(sp)
    37da:	2039 004d 2c28 	move.l 4d2c28 <DOSBase>,d0
    37e0:	2c40           	movea.l d0,a6
    37e2:	222f 002c      	move.l 44(sp),d1
    37e6:	242f 0028      	move.l 40(sp),d2
    37ea:	262f 0024      	move.l 36(sp),d3
    37ee:	4eae ffd0      	jsr -48(a6)
    37f2:	2f40 0020      	move.l d0,32(sp)
    37f6:	6000 01f6      	bra.w 39ee <TestCopyWord+0x2e8>
                                                                            53);
    return;
  }
  
  UWORD *tmp = source;
    37fa:	2f6f 007c 0094 	move.l 124(sp),148(sp)
  for( int i=0; i<8;i++) {
    3800:	42af 0090      	clr.l 144(sp)
    3804:	6000 0086      	bra.w 388c <TestCopyWord+0x186>
    *tmp++ = 0;
    3808:	202f 0094      	move.l 148(sp),d0
    380c:	2200           	move.l d0,d1
    380e:	5481           	addq.l #2,d1
    3810:	2f41 0094      	move.l d1,148(sp)
    3814:	2040           	movea.l d0,a0
    3816:	4250           	clr.w (a0)
    *tmp++ = 0xaaaa;
    3818:	202f 0094      	move.l 148(sp),d0
    381c:	2200           	move.l d0,d1
    381e:	5481           	addq.l #2,d1
    3820:	2f41 0094      	move.l d1,148(sp)
    3824:	2040           	movea.l d0,a0
    3826:	30bc aaaa      	move.w #-21846,(a0)
    *tmp++ = 0xaaaa;
    382a:	202f 0094      	move.l 148(sp),d0
    382e:	2200           	move.l d0,d1
    3830:	5481           	addq.l #2,d1
    3832:	2f41 0094      	move.l d1,148(sp)
    3836:	2040           	movea.l d0,a0
    3838:	30bc aaaa      	move.w #-21846,(a0)
    *tmp = 0;
    383c:	206f 0094      	movea.l 148(sp),a0
    3840:	4250           	clr.w (a0)
    tmp += ZMLINESIZE/2-3;
    3842:	7024           	moveq #36,d0
    3844:	d1af 0094      	add.l d0,148(sp)
    *tmp++ = 0;
    3848:	202f 0094      	move.l 148(sp),d0
    384c:	2200           	move.l d0,d1
    384e:	5481           	addq.l #2,d1
    3850:	2f41 0094      	move.l d1,148(sp)
    3854:	2040           	movea.l d0,a0
    3856:	4250           	clr.w (a0)
    *tmp++ = 0x5555;
    3858:	202f 0094      	move.l 148(sp),d0
    385c:	2200           	move.l d0,d1
    385e:	5481           	addq.l #2,d1
    3860:	2f41 0094      	move.l d1,148(sp)
    3864:	2040           	movea.l d0,a0
    3866:	30bc 5555      	move.w #21845,(a0)
    *tmp++ = 0x5555;
    386a:	202f 0094      	move.l 148(sp),d0
    386e:	2200           	move.l d0,d1
    3870:	5481           	addq.l #2,d1
    3872:	2f41 0094      	move.l d1,148(sp)
    3876:	2040           	movea.l d0,a0
    3878:	30bc 5555      	move.w #21845,(a0)
    *tmp = 0;
    387c:	206f 0094      	movea.l 148(sp),a0
    3880:	4250           	clr.w (a0)
    tmp += ZMLINESIZE/2-3;
    3882:	7024           	moveq #36,d0
    3884:	d1af 0094      	add.l d0,148(sp)
  for( int i=0; i<8;i++) {
    3888:	52af 0090      	addq.l #1,144(sp)
    388c:	7207           	moveq #7,d1
    388e:	b2af 0090      	cmp.l 144(sp),d1
    3892:	6c00 ff74      	bge.w 3808 <TestCopyWord+0x102>
  }
  tmp = destination;
    3896:	2f6f 006c 0094 	move.l 108(sp),148(sp)
  for( int i=0; i<ZMLINESIZE/2*30; i++) {
    389c:	42af 008c      	clr.l 140(sp)
    38a0:	6014           	bra.s 38b6 <TestCopyWord+0x1b0>
    *tmp++ = 0;
    38a2:	202f 0094      	move.l 148(sp),d0
    38a6:	2200           	move.l d0,d1
    38a8:	5481           	addq.l #2,d1
    38aa:	2f41 0094      	move.l d1,148(sp)
    38ae:	2040           	movea.l d0,a0
    38b0:	4250           	clr.w (a0)
  for( int i=0; i<ZMLINESIZE/2*30; i++) {
    38b2:	52af 008c      	addq.l #1,140(sp)
    38b6:	0caf 0000 0275 	cmpi.l #629,140(sp)
    38bc:	008c 
    38be:	6fe2           	ble.s 38a2 <TestCopyWord+0x19c>
  }

  WaitBlit();
    38c0:	2039 004d 2c2c 	move.l 4d2c2c <GfxBase>,d0
    38c6:	2c40           	movea.l d0,a6
    38c8:	4eae ff1c      	jsr -228(a6)

  Zoom_Init();
    38cc:	4eba db5a      	jsr 1428 <Zoom_Init>(pc)
  Init_Copy( 3);
    38d0:	4878 0003      	pea 3 <_start+0x3>
    38d4:	4eba e184      	jsr 1a5a <Init_Copy>(pc)
    38d8:	588f           	addq.l #4,sp
  Zoom_CopyWord( (UWORD *)source+1, (UWORD *)destination, 16);
    38da:	202f 007c      	move.l 124(sp),d0
    38de:	5480           	addq.l #2,d0
    38e0:	4878 0010      	pea 10 <_start+0x10>
    38e4:	2f2f 0070      	move.l 112(sp),-(sp)
    38e8:	2f00           	move.l d0,-(sp)
    38ea:	4eba d674      	jsr f60 <Zoom_CopyWord>(pc)
    38ee:	4fef 000c      	lea 12(sp),sp
  WaitBlit();
    38f2:	2039 004d 2c2c 	move.l 4d2c2c <GfxBase>,d0
    38f8:	2c40           	movea.l d0,a6
    38fa:	4eae ff1c      	jsr -228(a6)
  tmp = destination+1;
    38fe:	202f 006c      	move.l 108(sp),d0
    3902:	5480           	addq.l #2,d0
    3904:	2f40 0094      	move.l d0,148(sp)
  if( *tmp != 0x5555) 
    3908:	206f 0094      	movea.l 148(sp),a0
    390c:	3010           	move.w (a0),d0
    390e:	0c40 5555      	cmpi.w #21845,d0
    3912:	6742           	beq.s 3956 <TestCopyWord+0x250>
    Write(  Output(), "TestCopyWord: First row wrong.\n",31);
    3914:	2039 004d 2c28 	move.l 4d2c28 <DOSBase>,d0
    391a:	2c40           	movea.l d0,a6
    391c:	4eae ffc4      	jsr -60(a6)
    3920:	2f40 0068      	move.l d0,104(sp)
    3924:	202f 0068      	move.l 104(sp),d0
    3928:	2f40 0064      	move.l d0,100(sp)
    392c:	2f7c 0000 8436 	move.l #33846,96(sp)
    3932:	0060 
    3934:	721f           	moveq #31,d1
    3936:	2f41 005c      	move.l d1,92(sp)
    393a:	2039 004d 2c28 	move.l 4d2c28 <DOSBase>,d0
    3940:	2c40           	movea.l d0,a6
    3942:	222f 0064      	move.l 100(sp),d1
    3946:	242f 0060      	move.l 96(sp),d2
    394a:	262f 005c      	move.l 92(sp),d3
    394e:	4eae ffd0      	jsr -48(a6)
    3952:	2f40 0058      	move.l d0,88(sp)
  tmp += ZMLINESIZE/2;
    3956:	702a           	moveq #42,d0
    3958:	d1af 0094      	add.l d0,148(sp)
  if( *tmp != 0xaaaa)
    395c:	206f 0094      	movea.l 148(sp),a0
    3960:	3010           	move.w (a0),d0
    3962:	0c40 aaaa      	cmpi.w #-21846,d0
    3966:	6742           	beq.s 39aa <TestCopyWord+0x2a4>
    Write(  Output(), "TestCopyWord: Second row wrong.\n",32);
    3968:	2039 004d 2c28 	move.l 4d2c28 <DOSBase>,d0
    396e:	2c40           	movea.l d0,a6
    3970:	4eae ffc4      	jsr -60(a6)
    3974:	2f40 0054      	move.l d0,84(sp)
    3978:	202f 0054      	move.l 84(sp),d0
    397c:	2f40 0050      	move.l d0,80(sp)
    3980:	2f7c 0000 8456 	move.l #33878,76(sp)
    3986:	004c 
    3988:	7220           	moveq #32,d1
    398a:	2f41 0048      	move.l d1,72(sp)
    398e:	2039 004d 2c28 	move.l 4d2c28 <DOSBase>,d0
    3994:	2c40           	movea.l d0,a6
    3996:	222f 0050      	move.l 80(sp),d1
    399a:	242f 004c      	move.l 76(sp),d2
    399e:	262f 0048      	move.l 72(sp),d3
    39a2:	4eae ffd0      	jsr -48(a6)
    39a6:	2f40 0044      	move.l d0,68(sp)
  
  FreeMem( source,ZMLINESIZE*30);
    39aa:	2f6f 007c 0040 	move.l 124(sp),64(sp)
    39b0:	2f7c 0000 04ec 	move.l #1260,60(sp)
    39b6:	003c 
    39b8:	2039 004d 2c20 	move.l 4d2c20 <SysBase>,d0
    39be:	2c40           	movea.l d0,a6
    39c0:	226f 0040      	movea.l 64(sp),a1
    39c4:	202f 003c      	move.l 60(sp),d0
    39c8:	4eae ff2e      	jsr -210(a6)
  FreeMem( destination,ZMLINESIZE*30);
    39cc:	2f6f 006c 0038 	move.l 108(sp),56(sp)
    39d2:	2f7c 0000 04ec 	move.l #1260,52(sp)
    39d8:	0034 
    39da:	2039 004d 2c20 	move.l 4d2c20 <SysBase>,d0
    39e0:	2c40           	movea.l d0,a6
    39e2:	226f 0038      	movea.l 56(sp),a1
    39e6:	202f 0034      	move.l 52(sp),d0
    39ea:	4eae ff2e      	jsr -210(a6)
}
    39ee:	4cdf 400c      	movem.l (sp)+,d2-d3/a6
    39f2:	4fef 008c      	lea 140(sp),sp
    39f6:	4e75           	rts

000039f8 <TestZoom4PictureOn5Planes>:
/* 2233 4455 6677 8899 aabb ccdd eeff gghh ii11 ...
   1100 1100 1100 1100 1100 1100 1100 1100 1100
   c    c    c    c    c    c    c    c    c */


void TestZoom4PictureOn5Planes() {
    39f8:	4fef ff74      	lea -140(sp),sp
    39fc:	48e7 3002      	movem.l d2-d3/a6,-(sp)
  UWORD *source = AllocMem( (ZMLINESIZE+4)*272*5, MEMF_CHIP);
    3a00:	2f7c 0000 f460 	move.l #62560,102(sp)
    3a06:	0066 
    3a08:	7002           	moveq #2,d0
    3a0a:	2f40 0062      	move.l d0,98(sp)
    3a0e:	2039 004d 2c20 	move.l 4d2c20 <SysBase>,d0
    3a14:	2c40           	movea.l d0,a6
    3a16:	202f 0066      	move.l 102(sp),d0
    3a1a:	222f 0062      	move.l 98(sp),d1
    3a1e:	4eae ff3a      	jsr -198(a6)
    3a22:	2f40 005e      	move.l d0,94(sp)
    3a26:	202f 005e      	move.l 94(sp),d0
    3a2a:	2f40 005a      	move.l d0,90(sp)
  if( source == 0) {
    3a2e:	6646           	bne.s 3a76 <TestZoom4PictureOn5Planes+0x7e>
    Write(  Output(), 
    3a30:	2039 004d 2c28 	move.l 4d2c28 <DOSBase>,d0
    3a36:	2c40           	movea.l d0,a6
    3a38:	4eae ffc4      	jsr -60(a6)
    3a3c:	2f40 001e      	move.l d0,30(sp)
    3a40:	202f 001e      	move.l 30(sp),d0
    3a44:	2f40 001a      	move.l d0,26(sp)
    3a48:	2f7c 0000 8477 	move.l #33911,22(sp)
    3a4e:	0016 
    3a50:	7239           	moveq #57,d1
    3a52:	2f41 0012      	move.l d1,18(sp)
    3a56:	2039 004d 2c28 	move.l 4d2c28 <DOSBase>,d0
    3a5c:	2c40           	movea.l d0,a6
    3a5e:	222f 001a      	move.l 26(sp),d1
    3a62:	242f 0016      	move.l 22(sp),d2
    3a66:	262f 0012      	move.l 18(sp),d3
    3a6a:	4eae ffd0      	jsr -48(a6)
    3a6e:	2f40 000e      	move.l d0,14(sp)
    3a72:	6000 0266      	bra.w 3cda <TestZoom4PictureOn5Planes+0x2e2>
               "TestZoom4Picture: Memory for Source cannot be allocated.\n",57);
    return;
  }

  UWORD *destination = AllocMem( (ZMLINESIZE+4)*272*5, MEMF_CHIP);
    3a76:	2f7c 0000 f460 	move.l #62560,86(sp)
    3a7c:	0056 
    3a7e:	7002           	moveq #2,d0
    3a80:	2f40 0052      	move.l d0,82(sp)
    3a84:	2039 004d 2c20 	move.l 4d2c20 <SysBase>,d0
    3a8a:	2c40           	movea.l d0,a6
    3a8c:	202f 0056      	move.l 86(sp),d0
    3a90:	222f 0052      	move.l 82(sp),d1
    3a94:	4eae ff3a      	jsr -198(a6)
    3a98:	2f40 004e      	move.l d0,78(sp)
    3a9c:	202f 004e      	move.l 78(sp),d0
    3aa0:	2f40 004a      	move.l d0,74(sp)
  if( destination == 0) {
    3aa4:	6646           	bne.s 3aec <TestZoom4PictureOn5Planes+0xf4>
    Write(  Output(), 
    3aa6:	2039 004d 2c28 	move.l 4d2c28 <DOSBase>,d0
    3aac:	2c40           	movea.l d0,a6
    3aae:	4eae ffc4      	jsr -60(a6)
    3ab2:	2f40 0032      	move.l d0,50(sp)
    3ab6:	202f 0032      	move.l 50(sp),d0
    3aba:	2f40 002e      	move.l d0,46(sp)
    3abe:	2f7c 0000 84b1 	move.l #33969,42(sp)
    3ac4:	002a 
    3ac6:	723d           	moveq #61,d1
    3ac8:	2f41 0026      	move.l d1,38(sp)
    3acc:	2039 004d 2c28 	move.l 4d2c28 <DOSBase>,d0
    3ad2:	2c40           	movea.l d0,a6
    3ad4:	222f 002e      	move.l 46(sp),d1
    3ad8:	242f 002a      	move.l 42(sp),d2
    3adc:	262f 0026      	move.l 38(sp),d3
    3ae0:	4eae ffd0      	jsr -48(a6)
    3ae4:	2f40 0022      	move.l d0,34(sp)
    3ae8:	6000 01f0      	bra.w 3cda <TestZoom4PictureOn5Planes+0x2e2>
          "TestZoom4Picture: Memory for Destination cannot be allocated.\n",61);
    return;
  }
  ULONG *tmp4source = (ULONG *)source;
    3aec:	2f6f 005a 0094 	move.l 90(sp),148(sp)
  for(int i=0;i<128+8;i++) {
    3af2:	42af 0090      	clr.l 144(sp)
    3af6:	6050           	bra.s 3b48 <TestZoom4PictureOn5Planes+0x150>
    for(int i2=0;i2<ZMLINESIZE/4*5;i2++)
    3af8:	42af 008c      	clr.l 140(sp)
    3afc:	6018           	bra.s 3b16 <TestZoom4PictureOn5Planes+0x11e>
      *tmp4source++ = 0x55555555;
    3afe:	202f 0094      	move.l 148(sp),d0
    3b02:	2200           	move.l d0,d1
    3b04:	5881           	addq.l #4,d1
    3b06:	2f41 0094      	move.l d1,148(sp)
    3b0a:	2040           	movea.l d0,a0
    3b0c:	20bc 5555 5555 	move.l #1431655765,(a0)
    for(int i2=0;i2<ZMLINESIZE/4*5;i2++)
    3b12:	52af 008c      	addq.l #1,140(sp)
    3b16:	7031           	moveq #49,d0
    3b18:	b0af 008c      	cmp.l 140(sp),d0
    3b1c:	6ce0           	bge.s 3afe <TestZoom4PictureOn5Planes+0x106>
    for(int i2=0;i2<ZMLINESIZE/4*5;i2++)
    3b1e:	42af 0088      	clr.l 136(sp)
    3b22:	6018           	bra.s 3b3c <TestZoom4PictureOn5Planes+0x144>
      *tmp4source++ = 0xaaaaaaaa;
    3b24:	202f 0094      	move.l 148(sp),d0
    3b28:	2200           	move.l d0,d1
    3b2a:	5881           	addq.l #4,d1
    3b2c:	2f41 0094      	move.l d1,148(sp)
    3b30:	2040           	movea.l d0,a0
    3b32:	20bc aaaa aaaa 	move.l #-1431655766,(a0)
    for(int i2=0;i2<ZMLINESIZE/4*5;i2++)
    3b38:	52af 0088      	addq.l #1,136(sp)
    3b3c:	7031           	moveq #49,d0
    3b3e:	b0af 0088      	cmp.l 136(sp),d0
    3b42:	6ce0           	bge.s 3b24 <TestZoom4PictureOn5Planes+0x12c>
  for(int i=0;i<128+8;i++) {
    3b44:	52af 0090      	addq.l #1,144(sp)
    3b48:	0caf 0000 0087 	cmpi.l #135,144(sp)
    3b4e:	0090 
    3b50:	6fa6           	ble.s 3af8 <TestZoom4PictureOn5Planes+0x100>
  }

  Zoom_ZoomIntoPicture( source, destination, 0, 5);
    3b52:	4878 0005      	pea 5 <_start+0x5>
    3b56:	42a7           	clr.l -(sp)
    3b58:	2f2f 0052      	move.l 82(sp),-(sp)
    3b5c:	2f2f 0066      	move.l 102(sp),-(sp)
    3b60:	4eba df32      	jsr 1a94 <Zoom_ZoomIntoPicture>(pc)
    3b64:	4fef 0010      	lea 16(sp),sp
  WaitBlit();
    3b68:	2039 004d 2c2c 	move.l 4d2c2c <GfxBase>,d0
    3b6e:	2c40           	movea.l d0,a6
    3b70:	4eae ff1c      	jsr -228(a6)
  UWORD *valactual = destination+2; 
    3b74:	222f 004a      	move.l 74(sp),d1
    3b78:	5881           	addq.l #4,d1
    3b7a:	2f41 0084      	move.l d1,132(sp)
  UWORD *valsupposed = destlinezoom1;
    3b7e:	2f7c 0000 bac8 	move.l #47816,70(sp)
    3b84:	0046 
  UWORD mask = 0xffff;
    3b86:	3f7c ffff 0082 	move.w #-1,130(sp)
  for(int i=0;i<14;i++) {
    3b8c:	42af 007e      	clr.l 126(sp)
    3b90:	6000 00a8      	bra.w 3c3a <TestZoom4PictureOn5Planes+0x242>
    for(int i2=0;i2<18;i2++) { 
    3b94:	42af 007a      	clr.l 122(sp)
    3b98:	604e           	bra.s 3be8 <TestZoom4PictureOn5Planes+0x1f0>
      for( int i3=0;i3<5;i3++) {
    3b9a:	42af 0076      	clr.l 118(sp)
    3b9e:	6038           	bra.s 3bd8 <TestZoom4PictureOn5Planes+0x1e0>
        TestRow( valsupposed, valactual, mask, i2+i*19);
    3ba0:	222f 007e      	move.l 126(sp),d1
    3ba4:	2001           	move.l d1,d0
    3ba6:	e788           	lsl.l #3,d0
    3ba8:	d081           	add.l d1,d0
    3baa:	d080           	add.l d0,d0
    3bac:	d081           	add.l d1,d0
    3bae:	2200           	move.l d0,d1
    3bb0:	d2af 007a      	add.l 122(sp),d1
    3bb4:	7000           	moveq #0,d0
    3bb6:	302f 0082      	move.w 130(sp),d0
    3bba:	2f01           	move.l d1,-(sp)
    3bbc:	2f00           	move.l d0,-(sp)
    3bbe:	2f2f 008c      	move.l 140(sp),-(sp)
    3bc2:	2f2f 0052      	move.l 82(sp),-(sp)
    3bc6:	4eba 2f7e      	jsr 6b46 <TestRow>(pc)
    3bca:	4fef 0010      	lea 16(sp),sp
        valactual += ZMLINESIZE/2;
    3bce:	702a           	moveq #42,d0
    3bd0:	d1af 0084      	add.l d0,132(sp)
      for( int i3=0;i3<5;i3++) {
    3bd4:	52af 0076      	addq.l #1,118(sp)
    3bd8:	7204           	moveq #4,d1
    3bda:	b2af 0076      	cmp.l 118(sp),d1
    3bde:	6cc0           	bge.s 3ba0 <TestZoom4PictureOn5Planes+0x1a8>
      }
      mask = mask ^ 0xffff;
    3be0:	466f 0082      	not.w 130(sp)
    for(int i2=0;i2<18;i2++) { 
    3be4:	52af 007a      	addq.l #1,122(sp)
    3be8:	7011           	moveq #17,d0
    3bea:	b0af 007a      	cmp.l 122(sp),d0
    3bee:	6caa           	bge.s 3b9a <TestZoom4PictureOn5Planes+0x1a2>
    }
    for( int i3=0;i3<5;i3++) {
    3bf0:	42af 0072      	clr.l 114(sp)
    3bf4:	6038           	bra.s 3c2e <TestZoom4PictureOn5Planes+0x236>
      TestRow( valsupposed, valactual, mask, 18+i*19);
    3bf6:	222f 007e      	move.l 126(sp),d1
    3bfa:	2001           	move.l d1,d0
    3bfc:	e788           	lsl.l #3,d0
    3bfe:	d081           	add.l d1,d0
    3c00:	d080           	add.l d0,d0
    3c02:	2040           	movea.l d0,a0
    3c04:	d1c1           	adda.l d1,a0
    3c06:	41e8 0012      	lea 18(a0),a0
    3c0a:	7000           	moveq #0,d0
    3c0c:	302f 0082      	move.w 130(sp),d0
    3c10:	2f08           	move.l a0,-(sp)
    3c12:	2f00           	move.l d0,-(sp)
    3c14:	2f2f 008c      	move.l 140(sp),-(sp)
    3c18:	2f2f 0052      	move.l 82(sp),-(sp)
    3c1c:	4eba 2f28      	jsr 6b46 <TestRow>(pc)
    3c20:	4fef 0010      	lea 16(sp),sp
      valactual += ZMLINESIZE/2;
    3c24:	722a           	moveq #42,d1
    3c26:	d3af 0084      	add.l d1,132(sp)
    for( int i3=0;i3<5;i3++) {
    3c2a:	52af 0072      	addq.l #1,114(sp)
    3c2e:	7004           	moveq #4,d0
    3c30:	b0af 0072      	cmp.l 114(sp),d0
    3c34:	6cc0           	bge.s 3bf6 <TestZoom4PictureOn5Planes+0x1fe>
  for(int i=0;i<14;i++) {
    3c36:	52af 007e      	addq.l #1,126(sp)
    3c3a:	720d           	moveq #13,d1
    3c3c:	b2af 007e      	cmp.l 126(sp),d1
    3c40:	6c00 ff52      	bge.w 3b94 <TestZoom4PictureOn5Planes+0x19c>
    }
  }
  for(int i2=0;i2<4;i2++) { 
    3c44:	42af 006e      	clr.l 110(sp)
    3c48:	6044           	bra.s 3c8e <TestZoom4PictureOn5Planes+0x296>
    for( int i3=0;i3<5;i3++) {
    3c4a:	42af 006a      	clr.l 106(sp)
    3c4e:	602e           	bra.s 3c7e <TestZoom4PictureOn5Planes+0x286>
      TestRow( valsupposed, valactual, mask, i2+265);
    3c50:	222f 006e      	move.l 110(sp),d1
    3c54:	0681 0000 0109 	addi.l #265,d1
    3c5a:	7000           	moveq #0,d0
    3c5c:	302f 0082      	move.w 130(sp),d0
    3c60:	2f01           	move.l d1,-(sp)
    3c62:	2f00           	move.l d0,-(sp)
    3c64:	2f2f 008c      	move.l 140(sp),-(sp)
    3c68:	2f2f 0052      	move.l 82(sp),-(sp)
    3c6c:	4eba 2ed8      	jsr 6b46 <TestRow>(pc)
    3c70:	4fef 0010      	lea 16(sp),sp
      valactual += ZMLINESIZE/2;
    3c74:	702a           	moveq #42,d0
    3c76:	d1af 0084      	add.l d0,132(sp)
    for( int i3=0;i3<5;i3++) {
    3c7a:	52af 006a      	addq.l #1,106(sp)
    3c7e:	7204           	moveq #4,d1
    3c80:	b2af 006a      	cmp.l 106(sp),d1
    3c84:	6cca           	bge.s 3c50 <TestZoom4PictureOn5Planes+0x258>
    }
    mask = mask ^ 0xffff;
    3c86:	466f 0082      	not.w 130(sp)
  for(int i2=0;i2<4;i2++) { 
    3c8a:	52af 006e      	addq.l #1,110(sp)
    3c8e:	7003           	moveq #3,d0
    3c90:	b0af 006e      	cmp.l 110(sp),d0
    3c94:	6cb4           	bge.s 3c4a <TestZoom4PictureOn5Planes+0x252>
  } 
  FreeMem( source, (ZMLINESIZE+4)*272*5);
    3c96:	2f6f 005a 0042 	move.l 90(sp),66(sp)
    3c9c:	2f7c 0000 f460 	move.l #62560,62(sp)
    3ca2:	003e 
    3ca4:	2039 004d 2c20 	move.l 4d2c20 <SysBase>,d0
    3caa:	2c40           	movea.l d0,a6
    3cac:	226f 0042      	movea.l 66(sp),a1
    3cb0:	202f 003e      	move.l 62(sp),d0
    3cb4:	4eae ff2e      	jsr -210(a6)
  FreeMem( destination, (ZMLINESIZE+4)*272*5);
    3cb8:	2f6f 004a 003a 	move.l 74(sp),58(sp)
    3cbe:	2f7c 0000 f460 	move.l #62560,54(sp)
    3cc4:	0036 
    3cc6:	2039 004d 2c20 	move.l 4d2c20 <SysBase>,d0
    3ccc:	2c40           	movea.l d0,a6
    3cce:	226f 003a      	movea.l 58(sp),a1
    3cd2:	202f 0036      	move.l 54(sp),d0
    3cd6:	4eae ff2e      	jsr -210(a6)
}
    3cda:	4cdf 400c      	movem.l (sp)+,d2-d3/a6
    3cde:	4fef 008c      	lea 140(sp),sp
    3ce2:	4e75           	rts

00003ce4 <TestZoom4Picture>:

void TestZoom4Picture() {
    3ce4:	4fef fe30      	lea -464(sp),sp
    3ce8:	48e7 3002      	movem.l d2-d3/a6,-(sp)
  UWORD *source = AllocMem( (ZMLINESIZE+4)*272, MEMF_CHIP);
    3cec:	2f7c 0000 30e0 	move.l #12512,106(sp)
    3cf2:	006a 
    3cf4:	7002           	moveq #2,d0
    3cf6:	2f40 0066      	move.l d0,102(sp)
    3cfa:	2039 004d 2c20 	move.l 4d2c20 <SysBase>,d0
    3d00:	2c40           	movea.l d0,a6
    3d02:	202f 006a      	move.l 106(sp),d0
    3d06:	222f 0066      	move.l 102(sp),d1
    3d0a:	4eae ff3a      	jsr -198(a6)
    3d0e:	2f40 0062      	move.l d0,98(sp)
    3d12:	202f 0062      	move.l 98(sp),d0
    3d16:	2f40 005e      	move.l d0,94(sp)
  if( source == 0) {
    3d1a:	6646           	bne.s 3d62 <TestZoom4Picture+0x7e>
    Write(  Output(), 
    3d1c:	2039 004d 2c28 	move.l 4d2c28 <DOSBase>,d0
    3d22:	2c40           	movea.l d0,a6
    3d24:	4eae ffc4      	jsr -60(a6)
    3d28:	2f40 001e      	move.l d0,30(sp)
    3d2c:	202f 001e      	move.l 30(sp),d0
    3d30:	2f40 001a      	move.l d0,26(sp)
    3d34:	2f7c 0000 8477 	move.l #33911,22(sp)
    3d3a:	0016 
    3d3c:	7239           	moveq #57,d1
    3d3e:	2f41 0012      	move.l d1,18(sp)
    3d42:	2039 004d 2c28 	move.l 4d2c28 <DOSBase>,d0
    3d48:	2c40           	movea.l d0,a6
    3d4a:	222f 001a      	move.l 26(sp),d1
    3d4e:	242f 0016      	move.l 22(sp),d2
    3d52:	262f 0012      	move.l 18(sp),d3
    3d56:	4eae ffd0      	jsr -48(a6)
    3d5a:	2f40 000e      	move.l d0,14(sp)
    3d5e:	6000 2ddc      	bra.w 6b3c <TestZoom4Picture+0x2e58>
               "TestZoom4Picture: Memory for Source cannot be allocated.\n",57);
    return;
  }

  UWORD *destination = AllocMem( (ZMLINESIZE+4)*272, MEMF_CHIP);
    3d62:	2f7c 0000 30e0 	move.l #12512,90(sp)
    3d68:	005a 
    3d6a:	7002           	moveq #2,d0
    3d6c:	2f40 0056      	move.l d0,86(sp)
    3d70:	2039 004d 2c20 	move.l 4d2c20 <SysBase>,d0
    3d76:	2c40           	movea.l d0,a6
    3d78:	202f 005a      	move.l 90(sp),d0
    3d7c:	222f 0056      	move.l 86(sp),d1
    3d80:	4eae ff3a      	jsr -198(a6)
    3d84:	2f40 0052      	move.l d0,82(sp)
    3d88:	202f 0052      	move.l 82(sp),d0
    3d8c:	2f40 004e      	move.l d0,78(sp)
  if( destination == 0) {
    3d90:	6646           	bne.s 3dd8 <TestZoom4Picture+0xf4>
    Write(  Output(), 
    3d92:	2039 004d 2c28 	move.l 4d2c28 <DOSBase>,d0
    3d98:	2c40           	movea.l d0,a6
    3d9a:	4eae ffc4      	jsr -60(a6)
    3d9e:	2f40 0032      	move.l d0,50(sp)
    3da2:	202f 0032      	move.l 50(sp),d0
    3da6:	2f40 002e      	move.l d0,46(sp)
    3daa:	2f7c 0000 84b1 	move.l #33969,42(sp)
    3db0:	002a 
    3db2:	723d           	moveq #61,d1
    3db4:	2f41 0026      	move.l d1,38(sp)
    3db8:	2039 004d 2c28 	move.l 4d2c28 <DOSBase>,d0
    3dbe:	2c40           	movea.l d0,a6
    3dc0:	222f 002e      	move.l 46(sp),d1
    3dc4:	242f 002a      	move.l 42(sp),d2
    3dc8:	262f 0026      	move.l 38(sp),d3
    3dcc:	4eae ffd0      	jsr -48(a6)
    3dd0:	2f40 0022      	move.l d0,34(sp)
    3dd4:	6000 2d66      	bra.w 6b3c <TestZoom4Picture+0x2e58>
          "TestZoom4Picture: Memory for Destination cannot be allocated.\n",61);
    return;
  }
  ULONG *tmp4source = (ULONG *)source;
    3dd8:	2f6f 005e 01d8 	move.l 94(sp),472(sp)
  for(int i=0;i<128+8;i++) {
    3dde:	42af 01d4      	clr.l 468(sp)
    3de2:	6050           	bra.s 3e34 <TestZoom4Picture+0x150>
    for(int i2=0;i2<ZMLINESIZE/4;i2++)
    3de4:	42af 01d0      	clr.l 464(sp)
    3de8:	6018           	bra.s 3e02 <TestZoom4Picture+0x11e>
      *tmp4source++ = 0x55555555;
    3dea:	202f 01d8      	move.l 472(sp),d0
    3dee:	2200           	move.l d0,d1
    3df0:	5881           	addq.l #4,d1
    3df2:	2f41 01d8      	move.l d1,472(sp)
    3df6:	2040           	movea.l d0,a0
    3df8:	20bc 5555 5555 	move.l #1431655765,(a0)
    for(int i2=0;i2<ZMLINESIZE/4;i2++)
    3dfe:	52af 01d0      	addq.l #1,464(sp)
    3e02:	7009           	moveq #9,d0
    3e04:	b0af 01d0      	cmp.l 464(sp),d0
    3e08:	6ce0           	bge.s 3dea <TestZoom4Picture+0x106>
    for(int i2=0;i2<ZMLINESIZE/4;i2++)
    3e0a:	42af 01cc      	clr.l 460(sp)
    3e0e:	6018           	bra.s 3e28 <TestZoom4Picture+0x144>
      *tmp4source++ = 0xaaaaaaaa;
    3e10:	202f 01d8      	move.l 472(sp),d0
    3e14:	2200           	move.l d0,d1
    3e16:	5881           	addq.l #4,d1
    3e18:	2f41 01d8      	move.l d1,472(sp)
    3e1c:	2040           	movea.l d0,a0
    3e1e:	20bc aaaa aaaa 	move.l #-1431655766,(a0)
    for(int i2=0;i2<ZMLINESIZE/4;i2++)
    3e24:	52af 01cc      	addq.l #1,460(sp)
    3e28:	7009           	moveq #9,d0
    3e2a:	b0af 01cc      	cmp.l 460(sp),d0
    3e2e:	6ce0           	bge.s 3e10 <TestZoom4Picture+0x12c>
  for(int i=0;i<128+8;i++) {
    3e30:	52af 01d4      	addq.l #1,468(sp)
    3e34:	0caf 0000 0087 	cmpi.l #135,468(sp)
    3e3a:	01d4 
    3e3c:	6fa6           	ble.s 3de4 <TestZoom4Picture+0x100>
  }

  Zoom_ZoomIntoPicture( source, destination, 0, 1);
    3e3e:	4878 0001      	pea 1 <_start+0x1>
    3e42:	42a7           	clr.l -(sp)
    3e44:	2f2f 0056      	move.l 86(sp),-(sp)
    3e48:	2f2f 006a      	move.l 106(sp),-(sp)
    3e4c:	4eba dc46      	jsr 1a94 <Zoom_ZoomIntoPicture>(pc)
    3e50:	4fef 0010      	lea 16(sp),sp
  WaitBlit();
    3e54:	2039 004d 2c2c 	move.l 4d2c2c <GfxBase>,d0
    3e5a:	2c40           	movea.l d0,a6
    3e5c:	4eae ff1c      	jsr -228(a6)
  UWORD *valactual = destination+2; 
    3e60:	222f 004e      	move.l 78(sp),d1
    3e64:	5881           	addq.l #4,d1
    3e66:	2f41 01c8      	move.l d1,456(sp)
  UWORD *valsupposed = destlinezoom1;
    3e6a:	2f7c 0000 bac8 	move.l #47816,74(sp)
    3e70:	004a 
  UWORD mask = 0xffff;
    3e72:	3f7c ffff 01c6 	move.w #-1,454(sp)
  for(int i=0;i<14;i++) {
    3e78:	42af 01c2      	clr.l 450(sp)
    3e7c:	6000 0084      	bra.w 3f02 <TestZoom4Picture+0x21e>
    for(int i2=0;i2<18;i2++) { 
    3e80:	42af 01be      	clr.l 446(sp)
    3e84:	603c           	bra.s 3ec2 <TestZoom4Picture+0x1de>
      TestRow( valsupposed, valactual, mask, i2+i*19);
    3e86:	222f 01c2      	move.l 450(sp),d1
    3e8a:	2001           	move.l d1,d0
    3e8c:	e788           	lsl.l #3,d0
    3e8e:	d081           	add.l d1,d0
    3e90:	d080           	add.l d0,d0
    3e92:	d081           	add.l d1,d0
    3e94:	2200           	move.l d0,d1
    3e96:	d2af 01be      	add.l 446(sp),d1
    3e9a:	7000           	moveq #0,d0
    3e9c:	302f 01c6      	move.w 454(sp),d0
    3ea0:	2f01           	move.l d1,-(sp)
    3ea2:	2f00           	move.l d0,-(sp)
    3ea4:	2f2f 01d0      	move.l 464(sp),-(sp)
    3ea8:	2f2f 0056      	move.l 86(sp),-(sp)
    3eac:	4eba 2c98      	jsr 6b46 <TestRow>(pc)
    3eb0:	4fef 0010      	lea 16(sp),sp
      valactual += ZMLINESIZE/2;
    3eb4:	702a           	moveq #42,d0
    3eb6:	d1af 01c8      	add.l d0,456(sp)
      mask = mask ^ 0xffff;
    3eba:	466f 01c6      	not.w 454(sp)
    for(int i2=0;i2<18;i2++) { 
    3ebe:	52af 01be      	addq.l #1,446(sp)
    3ec2:	7211           	moveq #17,d1
    3ec4:	b2af 01be      	cmp.l 446(sp),d1
    3ec8:	6cbc           	bge.s 3e86 <TestZoom4Picture+0x1a2>
    }
    TestRow( valsupposed, valactual, mask, 18+i*19);
    3eca:	222f 01c2      	move.l 450(sp),d1
    3ece:	2001           	move.l d1,d0
    3ed0:	e788           	lsl.l #3,d0
    3ed2:	d081           	add.l d1,d0
    3ed4:	d080           	add.l d0,d0
    3ed6:	2040           	movea.l d0,a0
    3ed8:	d1c1           	adda.l d1,a0
    3eda:	41e8 0012      	lea 18(a0),a0
    3ede:	7000           	moveq #0,d0
    3ee0:	302f 01c6      	move.w 454(sp),d0
    3ee4:	2f08           	move.l a0,-(sp)
    3ee6:	2f00           	move.l d0,-(sp)
    3ee8:	2f2f 01d0      	move.l 464(sp),-(sp)
    3eec:	2f2f 0056      	move.l 86(sp),-(sp)
    3ef0:	4eba 2c54      	jsr 6b46 <TestRow>(pc)
    3ef4:	4fef 0010      	lea 16(sp),sp
    valactual += ZMLINESIZE/2;
    3ef8:	702a           	moveq #42,d0
    3efa:	d1af 01c8      	add.l d0,456(sp)
  for(int i=0;i<14;i++) {
    3efe:	52af 01c2      	addq.l #1,450(sp)
    3f02:	720d           	moveq #13,d1
    3f04:	b2af 01c2      	cmp.l 450(sp),d1
    3f08:	6c00 ff76      	bge.w 3e80 <TestZoom4Picture+0x19c>
  }

  for(int i2=0;i2<4;i2++) { 
    3f0c:	42af 01ba      	clr.l 442(sp)
    3f10:	6032           	bra.s 3f44 <TestZoom4Picture+0x260>
    TestRow( valsupposed, valactual, mask, i2+265);
    3f12:	222f 01ba      	move.l 442(sp),d1
    3f16:	0681 0000 0109 	addi.l #265,d1
    3f1c:	7000           	moveq #0,d0
    3f1e:	302f 01c6      	move.w 454(sp),d0
    3f22:	2f01           	move.l d1,-(sp)
    3f24:	2f00           	move.l d0,-(sp)
    3f26:	2f2f 01d0      	move.l 464(sp),-(sp)
    3f2a:	2f2f 0056      	move.l 86(sp),-(sp)
    3f2e:	4eba 2c16      	jsr 6b46 <TestRow>(pc)
    3f32:	4fef 0010      	lea 16(sp),sp
    valactual += ZMLINESIZE/2;
    3f36:	702a           	moveq #42,d0
    3f38:	d1af 01c8      	add.l d0,456(sp)
    mask = mask ^ 0xffff;
    3f3c:	466f 01c6      	not.w 454(sp)
  for(int i2=0;i2<4;i2++) { 
    3f40:	52af 01ba      	addq.l #1,442(sp)
    3f44:	7203           	moveq #3,d1
    3f46:	b2af 01ba      	cmp.l 442(sp),d1
    3f4a:	6cc6           	bge.s 3f12 <TestZoom4Picture+0x22e>
  }
  
  UWORD *tmp = source;
    3f4c:	2f6f 005e 0046 	move.l 94(sp),70(sp)
  source = destination;
    3f52:	2f6f 004e 005e 	move.l 78(sp),94(sp)
  destination = tmp;
    3f58:	2f6f 0046 004e 	move.l 70(sp),78(sp)
  
  Zoom_ZoomIntoPicture( source, destination, 1, 1);
    3f5e:	4878 0001      	pea 1 <_start+0x1>
    3f62:	4878 0001      	pea 1 <_start+0x1>
    3f66:	2f2f 0056      	move.l 86(sp),-(sp)
    3f6a:	2f2f 006a      	move.l 106(sp),-(sp)
    3f6e:	4eba db24      	jsr 1a94 <Zoom_ZoomIntoPicture>(pc)
    3f72:	4fef 0010      	lea 16(sp),sp
  WaitBlit();
    3f76:	2039 004d 2c2c 	move.l 4d2c2c <GfxBase>,d0
    3f7c:	2c40           	movea.l d0,a6
    3f7e:	4eae ff1c      	jsr -228(a6)
  valactual = destination+2; 
    3f82:	202f 004e      	move.l 78(sp),d0
    3f86:	5880           	addq.l #4,d0
    3f88:	2f40 01c8      	move.l d0,456(sp)
  valsupposed = destlinezoom2;
    3f8c:	2f7c 0000 baf4 	move.l #47860,74(sp)
    3f92:	004a 
  mask = 0x0000;
    3f94:	426f 01c6      	clr.w 454(sp)
  for(int i2=0;i2<11;i2++) { 
    3f98:	42af 01b6      	clr.l 438(sp)
    3f9c:	602a           	bra.s 3fc8 <TestZoom4Picture+0x2e4>
    TestRow( valsupposed, valactual, mask, i2);
    3f9e:	7000           	moveq #0,d0
    3fa0:	302f 01c6      	move.w 454(sp),d0
    3fa4:	2f2f 01b6      	move.l 438(sp),-(sp)
    3fa8:	2f00           	move.l d0,-(sp)
    3faa:	2f2f 01d0      	move.l 464(sp),-(sp)
    3fae:	2f2f 0056      	move.l 86(sp),-(sp)
    3fb2:	4eba 2b92      	jsr 6b46 <TestRow>(pc)
    3fb6:	4fef 0010      	lea 16(sp),sp
    valactual += ZMLINESIZE/2;
    3fba:	722a           	moveq #42,d1
    3fbc:	d3af 01c8      	add.l d1,456(sp)
    mask = mask ^ 0xffff;
    3fc0:	466f 01c6      	not.w 454(sp)
  for(int i2=0;i2<11;i2++) { 
    3fc4:	52af 01b6      	addq.l #1,438(sp)
    3fc8:	700a           	moveq #10,d0
    3fca:	b0af 01b6      	cmp.l 438(sp),d0
    3fce:	6cce           	bge.s 3f9e <TestZoom4Picture+0x2ba>
  }
  TestRow( valsupposed, valactual, 0xffff, 8);
    3fd0:	4878 0008      	pea 8 <_start+0x8>
    3fd4:	2f3c 0000 ffff 	move.l #65535,-(sp)
    3fda:	2f2f 01d0      	move.l 464(sp),-(sp)
    3fde:	2f2f 0056      	move.l 86(sp),-(sp)
    3fe2:	4eba 2b62      	jsr 6b46 <TestRow>(pc)
    3fe6:	4fef 0010      	lea 16(sp),sp
  valactual += ZMLINESIZE/2;
    3fea:	722a           	moveq #42,d1
    3fec:	d3af 01c8      	add.l d1,456(sp)
  TestRow( valsupposed, valactual, 0xffff, 9);
    3ff0:	4878 0009      	pea 9 <_start+0x9>
    3ff4:	2f3c 0000 ffff 	move.l #65535,-(sp)
    3ffa:	2f2f 01d0      	move.l 464(sp),-(sp)
    3ffe:	2f2f 0056      	move.l 86(sp),-(sp)
    4002:	4eba 2b42      	jsr 6b46 <TestRow>(pc)
    4006:	4fef 0010      	lea 16(sp),sp
  valactual += ZMLINESIZE/2;
    400a:	702a           	moveq #42,d0
    400c:	d1af 01c8      	add.l d0,456(sp)
  TestRow( valsupposed, valactual, 0x0000, 10);
    4010:	4878 000a      	pea a <_start+0xa>
    4014:	42a7           	clr.l -(sp)
    4016:	2f2f 01d0      	move.l 464(sp),-(sp)
    401a:	2f2f 0056      	move.l 86(sp),-(sp)
    401e:	4eba 2b26      	jsr 6b46 <TestRow>(pc)
    4022:	4fef 0010      	lea 16(sp),sp
  valactual += ZMLINESIZE/2;
    4026:	722a           	moveq #42,d1
    4028:	d3af 01c8      	add.l d1,456(sp)
  TestRow( valsupposed, valactual, 0x0000, 11);
    402c:	4878 000b      	pea b <_start+0xb>
    4030:	42a7           	clr.l -(sp)
    4032:	2f2f 01d0      	move.l 464(sp),-(sp)
    4036:	2f2f 0056      	move.l 86(sp),-(sp)
    403a:	4eba 2b0a      	jsr 6b46 <TestRow>(pc)
    403e:	4fef 0010      	lea 16(sp),sp

  valactual += ZMLINESIZE/2;
    4042:	702a           	moveq #42,d0
    4044:	d1af 01c8      	add.l d0,456(sp)
  for(int i=0;i<12;i++) {
    4048:	42af 01b2      	clr.l 434(sp)
    404c:	6000 0118      	bra.w 4166 <TestZoom4Picture+0x482>
    for(int i2=0;i2<16;i2++) {  
    4050:	42af 01ae      	clr.l 430(sp)
    4054:	603c           	bra.s 4092 <TestZoom4Picture+0x3ae>
      TestRow( valsupposed, valactual, mask, i2+i*17+11);
    4056:	222f 01b2      	move.l 434(sp),d1
    405a:	2001           	move.l d1,d0
    405c:	e988           	lsl.l #4,d0
    405e:	d081           	add.l d1,d0
    4060:	2040           	movea.l d0,a0
    4062:	d1ef 01ae      	adda.l 430(sp),a0
    4066:	41e8 000b      	lea 11(a0),a0
    406a:	7000           	moveq #0,d0
    406c:	302f 01c6      	move.w 454(sp),d0
    4070:	2f08           	move.l a0,-(sp)
    4072:	2f00           	move.l d0,-(sp)
    4074:	2f2f 01d0      	move.l 464(sp),-(sp)
    4078:	2f2f 0056      	move.l 86(sp),-(sp)
    407c:	4eba 2ac8      	jsr 6b46 <TestRow>(pc)
    4080:	4fef 0010      	lea 16(sp),sp
      valactual += ZMLINESIZE/2;
    4084:	722a           	moveq #42,d1
    4086:	d3af 01c8      	add.l d1,456(sp)
      mask = mask ^ 0xffff;
    408a:	466f 01c6      	not.w 454(sp)
    for(int i2=0;i2<16;i2++) {  
    408e:	52af 01ae      	addq.l #1,430(sp)
    4092:	700f           	moveq #15,d0
    4094:	b0af 01ae      	cmp.l 430(sp),d0
    4098:	6cbc           	bge.s 4056 <TestZoom4Picture+0x372>
    }
  
    TestRow( valsupposed, valactual, mask, i*17+11+13);
    409a:	222f 01b2      	move.l 434(sp),d1
    409e:	2001           	move.l d1,d0
    40a0:	e988           	lsl.l #4,d0
    40a2:	2040           	movea.l d0,a0
    40a4:	d1c1           	adda.l d1,a0
    40a6:	41e8 0018      	lea 24(a0),a0
    40aa:	7000           	moveq #0,d0
    40ac:	302f 01c6      	move.w 454(sp),d0
    40b0:	2f08           	move.l a0,-(sp)
    40b2:	2f00           	move.l d0,-(sp)
    40b4:	2f2f 01d0      	move.l 464(sp),-(sp)
    40b8:	2f2f 0056      	move.l 86(sp),-(sp)
    40bc:	4eba 2a88      	jsr 6b46 <TestRow>(pc)
    40c0:	4fef 0010      	lea 16(sp),sp
    valactual += ZMLINESIZE/2;
    40c4:	722a           	moveq #42,d1
    40c6:	d3af 01c8      	add.l d1,456(sp)
    TestRow( valsupposed, valactual, mask, i*17+11+14);
    40ca:	222f 01b2      	move.l 434(sp),d1
    40ce:	2001           	move.l d1,d0
    40d0:	e988           	lsl.l #4,d0
    40d2:	2040           	movea.l d0,a0
    40d4:	d1c1           	adda.l d1,a0
    40d6:	41e8 0019      	lea 25(a0),a0
    40da:	7000           	moveq #0,d0
    40dc:	302f 01c6      	move.w 454(sp),d0
    40e0:	2f08           	move.l a0,-(sp)
    40e2:	2f00           	move.l d0,-(sp)
    40e4:	2f2f 01d0      	move.l 464(sp),-(sp)
    40e8:	2f2f 0056      	move.l 86(sp),-(sp)
    40ec:	4eba 2a58      	jsr 6b46 <TestRow>(pc)
    40f0:	4fef 0010      	lea 16(sp),sp
    valactual += ZMLINESIZE/2;
    40f4:	702a           	moveq #42,d0
    40f6:	d1af 01c8      	add.l d0,456(sp)
    mask = mask ^ 0xffff;
    40fa:	466f 01c6      	not.w 454(sp)
    TestRow( valsupposed, valactual, mask, i*17+11+15);
    40fe:	222f 01b2      	move.l 434(sp),d1
    4102:	2001           	move.l d1,d0
    4104:	e988           	lsl.l #4,d0
    4106:	2040           	movea.l d0,a0
    4108:	d1c1           	adda.l d1,a0
    410a:	41e8 001a      	lea 26(a0),a0
    410e:	7000           	moveq #0,d0
    4110:	302f 01c6      	move.w 454(sp),d0
    4114:	2f08           	move.l a0,-(sp)
    4116:	2f00           	move.l d0,-(sp)
    4118:	2f2f 01d0      	move.l 464(sp),-(sp)
    411c:	2f2f 0056      	move.l 86(sp),-(sp)
    4120:	4eba 2a24      	jsr 6b46 <TestRow>(pc)
    4124:	4fef 0010      	lea 16(sp),sp
    valactual += ZMLINESIZE/2;
    4128:	722a           	moveq #42,d1
    412a:	d3af 01c8      	add.l d1,456(sp)
    TestRow( valsupposed, valactual, mask, i*17+11+16);
    412e:	222f 01b2      	move.l 434(sp),d1
    4132:	2001           	move.l d1,d0
    4134:	e988           	lsl.l #4,d0
    4136:	2040           	movea.l d0,a0
    4138:	d1c1           	adda.l d1,a0
    413a:	41e8 001b      	lea 27(a0),a0
    413e:	7000           	moveq #0,d0
    4140:	302f 01c6      	move.w 454(sp),d0
    4144:	2f08           	move.l a0,-(sp)
    4146:	2f00           	move.l d0,-(sp)
    4148:	2f2f 01d0      	move.l 464(sp),-(sp)
    414c:	2f2f 0056      	move.l 86(sp),-(sp)
    4150:	4eba 29f4      	jsr 6b46 <TestRow>(pc)
    4154:	4fef 0010      	lea 16(sp),sp
    valactual += ZMLINESIZE/2;
    4158:	702a           	moveq #42,d0
    415a:	d1af 01c8      	add.l d0,456(sp)
    mask = mask ^ 0xffff;
    415e:	466f 01c6      	not.w 454(sp)
  for(int i=0;i<12;i++) {
    4162:	52af 01b2      	addq.l #1,434(sp)
    4166:	720b           	moveq #11,d1
    4168:	b2af 01b2      	cmp.l 434(sp),d1
    416c:	6c00 fee2      	bge.w 4050 <TestZoom4Picture+0x36c>
    
  }

  for(int i2=0;i2<15;i2++) { 
    4170:	42af 01aa      	clr.l 426(sp)
    4174:	602a           	bra.s 41a0 <TestZoom4Picture+0x4bc>
    TestRow( valsupposed, valactual, mask, i2);
    4176:	7000           	moveq #0,d0
    4178:	302f 01c6      	move.w 454(sp),d0
    417c:	2f2f 01aa      	move.l 426(sp),-(sp)
    4180:	2f00           	move.l d0,-(sp)
    4182:	2f2f 01d0      	move.l 464(sp),-(sp)
    4186:	2f2f 0056      	move.l 86(sp),-(sp)
    418a:	4eba 29ba      	jsr 6b46 <TestRow>(pc)
    418e:	4fef 0010      	lea 16(sp),sp
    valactual += ZMLINESIZE/2;
    4192:	702a           	moveq #42,d0
    4194:	d1af 01c8      	add.l d0,456(sp)
    mask = mask ^ 0xffff;
    4198:	466f 01c6      	not.w 454(sp)
  for(int i2=0;i2<15;i2++) { 
    419c:	52af 01aa      	addq.l #1,426(sp)
    41a0:	720e           	moveq #14,d1
    41a2:	b2af 01aa      	cmp.l 426(sp),d1
    41a6:	6cce           	bge.s 4176 <TestZoom4Picture+0x492>
  }

  tmp = source;
    41a8:	2f6f 005e 0046 	move.l 94(sp),70(sp)
  source = destination;
    41ae:	2f6f 004e 005e 	move.l 78(sp),94(sp)
  destination = tmp;
    41b4:	2f6f 0046 004e 	move.l 70(sp),78(sp)

  Zoom_ZoomIntoPicture( source, destination, 2, 1);
    41ba:	4878 0001      	pea 1 <_start+0x1>
    41be:	4878 0002      	pea 2 <_start+0x2>
    41c2:	2f2f 0056      	move.l 86(sp),-(sp)
    41c6:	2f2f 006a      	move.l 106(sp),-(sp)
    41ca:	4eba d8c8      	jsr 1a94 <Zoom_ZoomIntoPicture>(pc)
    41ce:	4fef 0010      	lea 16(sp),sp
  WaitBlit();
    41d2:	2039 004d 2c2c 	move.l 4d2c2c <GfxBase>,d0
    41d8:	2c40           	movea.l d0,a6
    41da:	4eae ff1c      	jsr -228(a6)
  valactual = destination+2; 
    41de:	202f 004e      	move.l 78(sp),d0
    41e2:	5880           	addq.l #4,d0
    41e4:	2f40 01c8      	move.l d0,456(sp)
  valsupposed = destlinezoom3;
    41e8:	2f7c 0000 bb20 	move.l #47904,74(sp)
    41ee:	004a 
  mask = 0xffff;
    41f0:	3f7c ffff 01c6 	move.w #-1,454(sp)

  for(int i2=0;i2<4;i2++) { 
    41f6:	42af 01a6      	clr.l 422(sp)
    41fa:	602a           	bra.s 4226 <TestZoom4Picture+0x542>
    TestRow( valsupposed, valactual, mask, i2);
    41fc:	7000           	moveq #0,d0
    41fe:	302f 01c6      	move.w 454(sp),d0
    4202:	2f2f 01a6      	move.l 422(sp),-(sp)
    4206:	2f00           	move.l d0,-(sp)
    4208:	2f2f 01d0      	move.l 464(sp),-(sp)
    420c:	2f2f 0056      	move.l 86(sp),-(sp)
    4210:	4eba 2934      	jsr 6b46 <TestRow>(pc)
    4214:	4fef 0010      	lea 16(sp),sp
    valactual += ZMLINESIZE/2;
    4218:	722a           	moveq #42,d1
    421a:	d3af 01c8      	add.l d1,456(sp)
    mask = mask ^ 0xffff;
    421e:	466f 01c6      	not.w 454(sp)
  for(int i2=0;i2<4;i2++) { 
    4222:	52af 01a6      	addq.l #1,422(sp)
    4226:	7003           	moveq #3,d0
    4228:	b0af 01a6      	cmp.l 422(sp),d0
    422c:	6cce           	bge.s 41fc <TestZoom4Picture+0x518>
  }

  TestRow( valsupposed, valactual, 0xffff, 0+4);
    422e:	4878 0004      	pea 4 <_start+0x4>
    4232:	2f3c 0000 ffff 	move.l #65535,-(sp)
    4238:	2f2f 01d0      	move.l 464(sp),-(sp)
